   1              		.file	"Catalog.cpp"
   2              	# GNU C++14 (Ubuntu 8.3.0-6ubuntu1) version 8.3.0 (x86_64-linux-gnu)
   3              	#	compiled by GNU C version 8.3.0, GMP version 6.1.2, MPFR version 4.0.2, MPC version 1.1.0, isl ve
   4              	
   5              	# GGC heuristics: --param ggc-min-expand=100 --param ggc-min-heapsize=131072
   6              	# options passed:  -imultiarch x86_64-linux-gnu -D_GNU_SOURCE Catalog.cpp
   7              	# -mtune=generic -march=x86-64 -g -O0 -fverbose-asm
   8              	# -fstack-protector-strong -Wformat -Wformat-security
   9              	# options enabled:  -fPIC -fPIE -faggressive-loop-optimizations
  10              	# -fasynchronous-unwind-tables -fauto-inc-dec -fchkp-check-incomplete-type
  11              	# -fchkp-check-read -fchkp-check-write -fchkp-instrument-calls
  12              	# -fchkp-narrow-bounds -fchkp-optimize -fchkp-store-bounds
  13              	# -fchkp-use-static-bounds -fchkp-use-static-const-bounds
  14              	# -fchkp-use-wrappers -fcommon -fdelete-null-pointer-checks
  15              	# -fdwarf2-cfi-asm -fearly-inlining -feliminate-unused-debug-types
  16              	# -fexceptions -ffp-int-builtin-inexact -ffunction-cse -fgcse-lm
  17              	# -fgnu-runtime -fgnu-unique -fident -finline-atomics -fira-hoist-pressure
  18              	# -fira-share-save-slots -fira-share-spill-slots -fivopts
  19              	# -fkeep-static-consts -fleading-underscore -flifetime-dse
  20              	# -flto-odr-type-merging -fmath-errno -fmerge-debug-strings -fpeephole
  21              	# -fplt -fprefetch-loop-arrays -freg-struct-return
  22              	# -fsched-critical-path-heuristic -fsched-dep-count-heuristic
  23              	# -fsched-group-heuristic -fsched-interblock -fsched-last-insn-heuristic
  24              	# -fsched-rank-heuristic -fsched-spec -fsched-spec-insn-heuristic
  25              	# -fsched-stalled-insns-dep -fschedule-fusion -fsemantic-interposition
  26              	# -fshow-column -fshrink-wrap-separate -fsigned-zeros
  27              	# -fsplit-ivs-in-unroller -fssa-backprop -fstack-protector-strong
  28              	# -fstdarg-opt -fstrict-volatile-bitfields -fsync-libcalls -ftrapping-math
  29              	# -ftree-cselim -ftree-forwprop -ftree-loop-if-convert -ftree-loop-im
  30              	# -ftree-loop-ivcanon -ftree-loop-optimize -ftree-parallelize-loops=
  31              	# -ftree-phiprop -ftree-reassoc -ftree-scev-cprop -funit-at-a-time
  32              	# -funwind-tables -fverbose-asm -fzero-initialized-in-bss
  33              	# -m128bit-long-double -m64 -m80387 -malign-stringops
  34              	# -mavx256-split-unaligned-load -mavx256-split-unaligned-store
  35              	# -mfancy-math-387 -mfp-ret-in-387 -mfxsr -mglibc -mieee-fp
  36              	# -mlong-double-80 -mmmx -mno-sse4 -mpush-args -mred-zone -msse -msse2
  37              	# -mstv -mtls-direct-seg-refs -mvzeroupper
  38              	
  39              		.text
  40              	.Ltext0:
  41              		.section	.rodata
  44              	_ZStL19piecewise_construct:
  45 0000 00       		.zero	1
  46              		.section	.text._ZStorSt13_Ios_OpenmodeS_,"axG",@progbits,_ZStorSt13_Ios_OpenmodeS_,comdat
  47              		.weak	_ZStorSt13_Ios_OpenmodeS_
  49              	_ZStorSt13_Ios_OpenmodeS_:
  50              	.LFB1118:
  51              		.file 1 "/usr/include/c++/8/bits/ios_base.h"
   1:/usr/include/c++/8/bits/ios_base.h **** // Iostreams base classes -*- C++ -*-
   2:/usr/include/c++/8/bits/ios_base.h **** 
   3:/usr/include/c++/8/bits/ios_base.h **** // Copyright (C) 1997-2018 Free Software Foundation, Inc.
   4:/usr/include/c++/8/bits/ios_base.h **** //
   5:/usr/include/c++/8/bits/ios_base.h **** // This file is part of the GNU ISO C++ Library.  This library is free
   6:/usr/include/c++/8/bits/ios_base.h **** // software; you can redistribute it and/or modify it under the
   7:/usr/include/c++/8/bits/ios_base.h **** // terms of the GNU General Public License as published by the
   8:/usr/include/c++/8/bits/ios_base.h **** // Free Software Foundation; either version 3, or (at your option)
   9:/usr/include/c++/8/bits/ios_base.h **** // any later version.
  10:/usr/include/c++/8/bits/ios_base.h **** 
  11:/usr/include/c++/8/bits/ios_base.h **** // This library is distributed in the hope that it will be useful,
  12:/usr/include/c++/8/bits/ios_base.h **** // but WITHOUT ANY WARRANTY; without even the implied warranty of
  13:/usr/include/c++/8/bits/ios_base.h **** // MERCHANTABILITY or FITNESS FOR A PARTICULAR PURPOSE.  See the
  14:/usr/include/c++/8/bits/ios_base.h **** // GNU General Public License for more details.
  15:/usr/include/c++/8/bits/ios_base.h **** 
  16:/usr/include/c++/8/bits/ios_base.h **** // Under Section 7 of GPL version 3, you are granted additional
  17:/usr/include/c++/8/bits/ios_base.h **** // permissions described in the GCC Runtime Library Exception, version
  18:/usr/include/c++/8/bits/ios_base.h **** // 3.1, as published by the Free Software Foundation.
  19:/usr/include/c++/8/bits/ios_base.h **** 
  20:/usr/include/c++/8/bits/ios_base.h **** // You should have received a copy of the GNU General Public License and
  21:/usr/include/c++/8/bits/ios_base.h **** // a copy of the GCC Runtime Library Exception along with this program;
  22:/usr/include/c++/8/bits/ios_base.h **** // see the files COPYING3 and COPYING.RUNTIME respectively.  If not, see
  23:/usr/include/c++/8/bits/ios_base.h **** // <http://www.gnu.org/licenses/>.
  24:/usr/include/c++/8/bits/ios_base.h **** 
  25:/usr/include/c++/8/bits/ios_base.h **** /** @file bits/ios_base.h
  26:/usr/include/c++/8/bits/ios_base.h ****  *  This is an internal header file, included by other library headers.
  27:/usr/include/c++/8/bits/ios_base.h ****  *  Do not attempt to use it directly. @headername{ios}
  28:/usr/include/c++/8/bits/ios_base.h ****  */
  29:/usr/include/c++/8/bits/ios_base.h **** 
  30:/usr/include/c++/8/bits/ios_base.h **** //
  31:/usr/include/c++/8/bits/ios_base.h **** // ISO C++ 14882: 27.4  Iostreams base classes
  32:/usr/include/c++/8/bits/ios_base.h **** //
  33:/usr/include/c++/8/bits/ios_base.h **** 
  34:/usr/include/c++/8/bits/ios_base.h **** #ifndef _IOS_BASE_H
  35:/usr/include/c++/8/bits/ios_base.h **** #define _IOS_BASE_H 1
  36:/usr/include/c++/8/bits/ios_base.h **** 
  37:/usr/include/c++/8/bits/ios_base.h **** #pragma GCC system_header
  38:/usr/include/c++/8/bits/ios_base.h **** 
  39:/usr/include/c++/8/bits/ios_base.h **** #include <ext/atomicity.h>
  40:/usr/include/c++/8/bits/ios_base.h **** #include <bits/localefwd.h>
  41:/usr/include/c++/8/bits/ios_base.h **** #include <bits/locale_classes.h>
  42:/usr/include/c++/8/bits/ios_base.h **** 
  43:/usr/include/c++/8/bits/ios_base.h **** #if __cplusplus < 201103L
  44:/usr/include/c++/8/bits/ios_base.h **** # include <stdexcept>
  45:/usr/include/c++/8/bits/ios_base.h **** #else
  46:/usr/include/c++/8/bits/ios_base.h **** # include <system_error>
  47:/usr/include/c++/8/bits/ios_base.h **** #endif
  48:/usr/include/c++/8/bits/ios_base.h **** 
  49:/usr/include/c++/8/bits/ios_base.h **** namespace std _GLIBCXX_VISIBILITY(default)
  50:/usr/include/c++/8/bits/ios_base.h **** {
  51:/usr/include/c++/8/bits/ios_base.h **** _GLIBCXX_BEGIN_NAMESPACE_VERSION
  52:/usr/include/c++/8/bits/ios_base.h **** 
  53:/usr/include/c++/8/bits/ios_base.h ****   // The following definitions of bitmask types are enums, not ints,
  54:/usr/include/c++/8/bits/ios_base.h ****   // as permitted (but not required) in the standard, in order to provide
  55:/usr/include/c++/8/bits/ios_base.h ****   // better type safety in iostream calls.  A side effect is that in C++98
  56:/usr/include/c++/8/bits/ios_base.h ****   // expressions involving them are not compile-time constants.
  57:/usr/include/c++/8/bits/ios_base.h ****   enum _Ios_Fmtflags 
  58:/usr/include/c++/8/bits/ios_base.h ****     { 
  59:/usr/include/c++/8/bits/ios_base.h ****       _S_boolalpha 	= 1L << 0,
  60:/usr/include/c++/8/bits/ios_base.h ****       _S_dec 		= 1L << 1,
  61:/usr/include/c++/8/bits/ios_base.h ****       _S_fixed 		= 1L << 2,
  62:/usr/include/c++/8/bits/ios_base.h ****       _S_hex 		= 1L << 3,
  63:/usr/include/c++/8/bits/ios_base.h ****       _S_internal 	= 1L << 4,
  64:/usr/include/c++/8/bits/ios_base.h ****       _S_left 		= 1L << 5,
  65:/usr/include/c++/8/bits/ios_base.h ****       _S_oct 		= 1L << 6,
  66:/usr/include/c++/8/bits/ios_base.h ****       _S_right 		= 1L << 7,
  67:/usr/include/c++/8/bits/ios_base.h ****       _S_scientific 	= 1L << 8,
  68:/usr/include/c++/8/bits/ios_base.h ****       _S_showbase 	= 1L << 9,
  69:/usr/include/c++/8/bits/ios_base.h ****       _S_showpoint 	= 1L << 10,
  70:/usr/include/c++/8/bits/ios_base.h ****       _S_showpos 	= 1L << 11,
  71:/usr/include/c++/8/bits/ios_base.h ****       _S_skipws 	= 1L << 12,
  72:/usr/include/c++/8/bits/ios_base.h ****       _S_unitbuf 	= 1L << 13,
  73:/usr/include/c++/8/bits/ios_base.h ****       _S_uppercase 	= 1L << 14,
  74:/usr/include/c++/8/bits/ios_base.h ****       _S_adjustfield 	= _S_left | _S_right | _S_internal,
  75:/usr/include/c++/8/bits/ios_base.h ****       _S_basefield 	= _S_dec | _S_oct | _S_hex,
  76:/usr/include/c++/8/bits/ios_base.h ****       _S_floatfield 	= _S_scientific | _S_fixed,
  77:/usr/include/c++/8/bits/ios_base.h ****       _S_ios_fmtflags_end = 1L << 16,
  78:/usr/include/c++/8/bits/ios_base.h ****       _S_ios_fmtflags_max = __INT_MAX__,
  79:/usr/include/c++/8/bits/ios_base.h ****       _S_ios_fmtflags_min = ~__INT_MAX__
  80:/usr/include/c++/8/bits/ios_base.h ****     };
  81:/usr/include/c++/8/bits/ios_base.h **** 
  82:/usr/include/c++/8/bits/ios_base.h ****   inline _GLIBCXX_CONSTEXPR _Ios_Fmtflags
  83:/usr/include/c++/8/bits/ios_base.h ****   operator&(_Ios_Fmtflags __a, _Ios_Fmtflags __b)
  84:/usr/include/c++/8/bits/ios_base.h ****   { return _Ios_Fmtflags(static_cast<int>(__a) & static_cast<int>(__b)); }
  85:/usr/include/c++/8/bits/ios_base.h **** 
  86:/usr/include/c++/8/bits/ios_base.h ****   inline _GLIBCXX_CONSTEXPR _Ios_Fmtflags
  87:/usr/include/c++/8/bits/ios_base.h ****   operator|(_Ios_Fmtflags __a, _Ios_Fmtflags __b)
  88:/usr/include/c++/8/bits/ios_base.h ****   { return _Ios_Fmtflags(static_cast<int>(__a) | static_cast<int>(__b)); }
  89:/usr/include/c++/8/bits/ios_base.h **** 
  90:/usr/include/c++/8/bits/ios_base.h ****   inline _GLIBCXX_CONSTEXPR _Ios_Fmtflags
  91:/usr/include/c++/8/bits/ios_base.h ****   operator^(_Ios_Fmtflags __a, _Ios_Fmtflags __b)
  92:/usr/include/c++/8/bits/ios_base.h ****   { return _Ios_Fmtflags(static_cast<int>(__a) ^ static_cast<int>(__b)); }
  93:/usr/include/c++/8/bits/ios_base.h **** 
  94:/usr/include/c++/8/bits/ios_base.h ****   inline _GLIBCXX_CONSTEXPR _Ios_Fmtflags
  95:/usr/include/c++/8/bits/ios_base.h ****   operator~(_Ios_Fmtflags __a)
  96:/usr/include/c++/8/bits/ios_base.h ****   { return _Ios_Fmtflags(~static_cast<int>(__a)); }
  97:/usr/include/c++/8/bits/ios_base.h **** 
  98:/usr/include/c++/8/bits/ios_base.h ****   inline const _Ios_Fmtflags&
  99:/usr/include/c++/8/bits/ios_base.h ****   operator|=(_Ios_Fmtflags& __a, _Ios_Fmtflags __b)
 100:/usr/include/c++/8/bits/ios_base.h ****   { return __a = __a | __b; }
 101:/usr/include/c++/8/bits/ios_base.h **** 
 102:/usr/include/c++/8/bits/ios_base.h ****   inline const _Ios_Fmtflags&
 103:/usr/include/c++/8/bits/ios_base.h ****   operator&=(_Ios_Fmtflags& __a, _Ios_Fmtflags __b)
 104:/usr/include/c++/8/bits/ios_base.h ****   { return __a = __a & __b; }
 105:/usr/include/c++/8/bits/ios_base.h **** 
 106:/usr/include/c++/8/bits/ios_base.h ****   inline const _Ios_Fmtflags&
 107:/usr/include/c++/8/bits/ios_base.h ****   operator^=(_Ios_Fmtflags& __a, _Ios_Fmtflags __b)
 108:/usr/include/c++/8/bits/ios_base.h ****   { return __a = __a ^ __b; }
 109:/usr/include/c++/8/bits/ios_base.h **** 
 110:/usr/include/c++/8/bits/ios_base.h **** 
 111:/usr/include/c++/8/bits/ios_base.h ****   enum _Ios_Openmode 
 112:/usr/include/c++/8/bits/ios_base.h ****     { 
 113:/usr/include/c++/8/bits/ios_base.h ****       _S_app 		= 1L << 0,
 114:/usr/include/c++/8/bits/ios_base.h ****       _S_ate 		= 1L << 1,
 115:/usr/include/c++/8/bits/ios_base.h ****       _S_bin 		= 1L << 2,
 116:/usr/include/c++/8/bits/ios_base.h ****       _S_in 		= 1L << 3,
 117:/usr/include/c++/8/bits/ios_base.h ****       _S_out 		= 1L << 4,
 118:/usr/include/c++/8/bits/ios_base.h ****       _S_trunc 		= 1L << 5,
 119:/usr/include/c++/8/bits/ios_base.h ****       _S_ios_openmode_end = 1L << 16,
 120:/usr/include/c++/8/bits/ios_base.h ****       _S_ios_openmode_max = __INT_MAX__,
 121:/usr/include/c++/8/bits/ios_base.h ****       _S_ios_openmode_min = ~__INT_MAX__
 122:/usr/include/c++/8/bits/ios_base.h ****     };
 123:/usr/include/c++/8/bits/ios_base.h **** 
 124:/usr/include/c++/8/bits/ios_base.h ****   inline _GLIBCXX_CONSTEXPR _Ios_Openmode
 125:/usr/include/c++/8/bits/ios_base.h ****   operator&(_Ios_Openmode __a, _Ios_Openmode __b)
 126:/usr/include/c++/8/bits/ios_base.h ****   { return _Ios_Openmode(static_cast<int>(__a) & static_cast<int>(__b)); }
 127:/usr/include/c++/8/bits/ios_base.h **** 
 128:/usr/include/c++/8/bits/ios_base.h ****   inline _GLIBCXX_CONSTEXPR _Ios_Openmode
 129:/usr/include/c++/8/bits/ios_base.h ****   operator|(_Ios_Openmode __a, _Ios_Openmode __b)
 130:/usr/include/c++/8/bits/ios_base.h ****   { return _Ios_Openmode(static_cast<int>(__a) | static_cast<int>(__b)); }
  52              		.loc 1 130 3
  53              		.cfi_startproc
  54 0000 55       		pushq	%rbp	#
  55              		.cfi_def_cfa_offset 16
  56              		.cfi_offset 6, -16
  57 0001 4889E5   		movq	%rsp, %rbp	#,
  58              		.cfi_def_cfa_register 6
  59 0004 897DFC   		movl	%edi, -4(%rbp)	# __a, __a
  60 0007 8975F8   		movl	%esi, -8(%rbp)	# __b, __b
  61              	# /usr/include/c++/8/bits/ios_base.h:130:   { return _Ios_Openmode(static_cast<int>(__a) | static_c
  62              		.loc 1 130 71
  63 000a 8B45FC   		movl	-4(%rbp), %eax	# __a, tmp89
  64 000d 0B45F8   		orl	-8(%rbp), %eax	# __b, _3
  65              	# /usr/include/c++/8/bits/ios_base.h:130:   { return _Ios_Openmode(static_cast<int>(__a) | static_c
  66              		.loc 1 130 74
  67 0010 5D       		popq	%rbp	#
  68              		.cfi_def_cfa 7, 8
  69 0011 C3       		ret	
  70              		.cfi_endproc
  71              	.LFE1118:
  73              		.local	_ZStL8__ioinit
  74              		.comm	_ZStL8__ioinit,1,1
  75              		.globl	INIT_COUNT
  76              		.data
  77              		.align 32
  80              	INIT_COUNT:
  81              	# letter:
  82 0000 41       		.byte	65
  83              	# frequency:
  84 0001 000000   		.zero	3
  85 0004 00000000 		.long	0
  86              	# letter:
  87 0008 42       		.byte	66
  88              	# frequency:
  89 0009 000000   		.zero	3
  90 000c 00000000 		.long	0
  91              	# letter:
  92 0010 43       		.byte	67
  93              	# frequency:
  94 0011 000000   		.zero	3
  95 0014 00000000 		.long	0
  96              	# letter:
  97 0018 44       		.byte	68
  98              	# frequency:
  99 0019 000000   		.zero	3
 100 001c 00000000 		.long	0
 101              	# letter:
 102 0020 45       		.byte	69
 103              	# frequency:
 104 0021 000000   		.zero	3
 105 0024 00000000 		.long	0
 106              	# letter:
 107 0028 46       		.byte	70
 108              	# frequency:
 109 0029 000000   		.zero	3
 110 002c 00000000 		.long	0
 111              	# letter:
 112 0030 47       		.byte	71
 113              	# frequency:
 114 0031 000000   		.zero	3
 115 0034 00000000 		.long	0
 116              	# letter:
 117 0038 48       		.byte	72
 118              	# frequency:
 119 0039 000000   		.zero	3
 120 003c 00000000 		.long	0
 121              	# letter:
 122 0040 49       		.byte	73
 123              	# frequency:
 124 0041 000000   		.zero	3
 125 0044 00000000 		.long	0
 126              	# letter:
 127 0048 4A       		.byte	74
 128              	# frequency:
 129 0049 000000   		.zero	3
 130 004c 00000000 		.long	0
 131              	# letter:
 132 0050 4B       		.byte	75
 133              	# frequency:
 134 0051 000000   		.zero	3
 135 0054 00000000 		.long	0
 136              	# letter:
 137 0058 4C       		.byte	76
 138              	# frequency:
 139 0059 000000   		.zero	3
 140 005c 00000000 		.long	0
 141              	# letter:
 142 0060 4D       		.byte	77
 143              	# frequency:
 144 0061 000000   		.zero	3
 145 0064 00000000 		.long	0
 146              	# letter:
 147 0068 4E       		.byte	78
 148              	# frequency:
 149 0069 000000   		.zero	3
 150 006c 00000000 		.long	0
 151              	# letter:
 152 0070 4F       		.byte	79
 153              	# frequency:
 154 0071 000000   		.zero	3
 155 0074 00000000 		.long	0
 156              	# letter:
 157 0078 50       		.byte	80
 158              	# frequency:
 159 0079 000000   		.zero	3
 160 007c 00000000 		.long	0
 161              	# letter:
 162 0080 51       		.byte	81
 163              	# frequency:
 164 0081 000000   		.zero	3
 165 0084 00000000 		.long	0
 166              	# letter:
 167 0088 52       		.byte	82
 168              	# frequency:
 169 0089 000000   		.zero	3
 170 008c 00000000 		.long	0
 171              	# letter:
 172 0090 53       		.byte	83
 173              	# frequency:
 174 0091 000000   		.zero	3
 175 0094 00000000 		.long	0
 176              	# letter:
 177 0098 54       		.byte	84
 178              	# frequency:
 179 0099 000000   		.zero	3
 180 009c 00000000 		.long	0
 181              	# letter:
 182 00a0 55       		.byte	85
 183              	# frequency:
 184 00a1 000000   		.zero	3
 185 00a4 00000000 		.long	0
 186              	# letter:
 187 00a8 56       		.byte	86
 188              	# frequency:
 189 00a9 000000   		.zero	3
 190 00ac 00000000 		.long	0
 191              	# letter:
 192 00b0 57       		.byte	87
 193              	# frequency:
 194 00b1 000000   		.zero	3
 195 00b4 00000000 		.long	0
 196              	# letter:
 197 00b8 53       		.byte	83
 198              	# frequency:
 199 00b9 000000   		.zero	3
 200 00bc 00000000 		.long	0
 201              	# letter:
 202 00c0 59       		.byte	89
 203              	# frequency:
 204 00c1 000000   		.zero	3
 205 00c4 00000000 		.long	0
 206              	# letter:
 207 00c8 5A       		.byte	90
 208              	# frequency:
 209 00c9 000000   		.zero	3
 210 00cc 00000000 		.long	0
 211              		.section	.text._ZN7CatalogC2Ev,"axG",@progbits,_ZN7CatalogC5Ev,comdat
 212              		.align 2
 213              		.weak	_ZN7CatalogC2Ev
 215              	_ZN7CatalogC2Ev:
 216              	.LFB2155:
 217              		.file 2 "Catalog.cpp"
   1:Catalog.cpp   **** 
   2:Catalog.cpp   **** #include <stdio.h>
   3:Catalog.cpp   **** #include <iostream>
   4:Catalog.cpp   **** #include <string>
   5:Catalog.cpp   **** #include <fstream>
   6:Catalog.cpp   **** #include <algorithm>
   7:Catalog.cpp   **** #include <ctype.h>
   8:Catalog.cpp   **** #include <sstream>
   9:Catalog.cpp   **** 
  10:Catalog.cpp   **** using namespace std;
  11:Catalog.cpp   **** 
  12:Catalog.cpp   **** struct Letter_Count {
  13:Catalog.cpp   **** 
  14:Catalog.cpp   ****     char letter;
  15:Catalog.cpp   ****     int frequency;
  16:Catalog.cpp   **** 
  17:Catalog.cpp   **** };
  18:Catalog.cpp   **** Letter_Count INIT_COUNT[26] = \
  19:Catalog.cpp   **** {
  20:Catalog.cpp   ****     {'A', 0},
  21:Catalog.cpp   ****     {'B', 0},
  22:Catalog.cpp   ****     {'C', 0},
  23:Catalog.cpp   ****     {'D', 0},
  24:Catalog.cpp   ****     {'E', 0}, 
  25:Catalog.cpp   ****     {'F', 0},
  26:Catalog.cpp   ****     {'G', 0},
  27:Catalog.cpp   ****     {'H', 0},
  28:Catalog.cpp   ****     {'I', 0},
  29:Catalog.cpp   ****     {'J', 0},
  30:Catalog.cpp   ****     {'K', 0},
  31:Catalog.cpp   ****     {'L', 0},
  32:Catalog.cpp   ****     {'M', 0},
  33:Catalog.cpp   ****     {'N', 0},
  34:Catalog.cpp   ****     {'O', 0},
  35:Catalog.cpp   ****     {'P', 0},
  36:Catalog.cpp   ****     {'Q', 0},
  37:Catalog.cpp   ****     {'R', 0},
  38:Catalog.cpp   ****     {'S', 0},
  39:Catalog.cpp   ****     {'T', 0},
  40:Catalog.cpp   ****     {'U', 0},
  41:Catalog.cpp   ****     {'V', 0},
  42:Catalog.cpp   ****     {'W', 0},
  43:Catalog.cpp   ****     {'S', 0},
  44:Catalog.cpp   ****     {'Y', 0},
  45:Catalog.cpp   ****     {'Z', 0}
  46:Catalog.cpp   **** 
  47:Catalog.cpp   **** };
  48:Catalog.cpp   **** struct Catalog {
 218              		.loc 2 48 8
 219              		.cfi_startproc
 220 0000 55       		pushq	%rbp	#
 221              		.cfi_def_cfa_offset 16
 222              		.cfi_offset 6, -16
 223 0001 4889E5   		movq	%rsp, %rbp	#,
 224              		.cfi_def_cfa_register 6
 225 0004 4883EC10 		subq	$16, %rsp	#,
 226 0008 48897DF8 		movq	%rdi, -8(%rbp)	# this, this
 227              	.LBB2:
 228              	# Catalog.cpp:48: struct Catalog {
 229              		.loc 2 48 8
 230 000c 488B45F8 		movq	-8(%rbp), %rax	# this, _1
 231 0010 4889C7   		movq	%rax, %rdi	# _1,
 232 0013 E8000000 		call	_ZNSt7__cxx1112basic_stringIcSt11char_traitsIcESaIcEEC1Ev@PLT	#
 232      00
 233 0018 488B45F8 		movq	-8(%rbp), %rax	# this, tmp93
 234 001c 4883C020 		addq	$32, %rax	#, _2
 235 0020 4889C7   		movq	%rax, %rdi	# _2,
 236 0023 E8000000 		call	_ZNSt7__cxx1112basic_stringIcSt11char_traitsIcESaIcEEC1Ev@PLT	#
 236      00
 237 0028 488B45F8 		movq	-8(%rbp), %rax	# this, tmp94
 238 002c 4883C040 		addq	$64, %rax	#, _3
 239 0030 4889C7   		movq	%rax, %rdi	# _3,
 240 0033 E8000000 		call	_ZNSt7__cxx1112basic_stringIcSt11char_traitsIcESaIcEEC1Ev@PLT	#
 240      00
 241 0038 488B45F8 		movq	-8(%rbp), %rax	# this, tmp95
 242 003c C7406000 		movl	$0, 96(%rax)	#, this_7(D)->word_count
 242      000000
 243 0043 488B45F8 		movq	-8(%rbp), %rax	# this, tmp96
 244 0047 C7803401 		movl	$0, 308(%rax)	#, this_7(D)->line_count
 244      00000000 
 244      0000
 245              	.LBE2:
 246 0051 90       		nop	
 247 0052 C9       		leave	
 248              		.cfi_def_cfa 7, 8
 249 0053 C3       		ret	
 250              		.cfi_endproc
 251              	.LFE2155:
 253              		.weak	_ZN7CatalogC1Ev
 254              		.set	_ZN7CatalogC1Ev,_ZN7CatalogC2Ev
 255              		.section	.text._ZN7CatalogD2Ev,"axG",@progbits,_ZN7CatalogD5Ev,comdat
 256              		.align 2
 257              		.weak	_ZN7CatalogD2Ev
 259              	_ZN7CatalogD2Ev:
 260              	.LFB2158:
 261              		.loc 2 48 8
 262              		.cfi_startproc
 263 0000 55       		pushq	%rbp	#
 264              		.cfi_def_cfa_offset 16
 265              		.cfi_offset 6, -16
 266 0001 4889E5   		movq	%rsp, %rbp	#,
 267              		.cfi_def_cfa_register 6
 268 0004 4883EC10 		subq	$16, %rsp	#,
 269 0008 48897DF8 		movq	%rdi, -8(%rbp)	# this, this
 270              	.LBB3:
 271              	# Catalog.cpp:48: struct Catalog {
 272              		.loc 2 48 8
 273 000c 488B45F8 		movq	-8(%rbp), %rax	# this, tmp90
 274 0010 4883C040 		addq	$64, %rax	#, _1
 275 0014 4889C7   		movq	%rax, %rdi	# _1,
 276 0017 E8000000 		call	_ZNSt7__cxx1112basic_stringIcSt11char_traitsIcESaIcEED1Ev@PLT	#
 276      00
 277 001c 488B45F8 		movq	-8(%rbp), %rax	# this, tmp91
 278 0020 4883C020 		addq	$32, %rax	#, _2
 279 0024 4889C7   		movq	%rax, %rdi	# _2,
 280 0027 E8000000 		call	_ZNSt7__cxx1112basic_stringIcSt11char_traitsIcESaIcEED1Ev@PLT	#
 280      00
 281 002c 488B45F8 		movq	-8(%rbp), %rax	# this, _3
 282 0030 4889C7   		movq	%rax, %rdi	# _3,
 283 0033 E8000000 		call	_ZNSt7__cxx1112basic_stringIcSt11char_traitsIcESaIcEED1Ev@PLT	#
 283      00
 284              	.LBE3:
 285 0038 90       		nop	
 286 0039 C9       		leave	
 287              		.cfi_def_cfa 7, 8
 288 003a C3       		ret	
 289              		.cfi_endproc
 290              	.LFE2158:
 292              		.weak	_ZN7CatalogD1Ev
 293              		.set	_ZN7CatalogD1Ev,_ZN7CatalogD2Ev
 294              		.section	.text._ZN7CatalogaSEOS_,"axG",@progbits,_ZN7CatalogaSEOS_,comdat
 295              		.align 2
 296              		.weak	_ZN7CatalogaSEOS_
 298              	_ZN7CatalogaSEOS_:
 299              	.LFB2163:
 300              		.loc 2 48 8
 301              		.cfi_startproc
 302 0000 55       		pushq	%rbp	#
 303              		.cfi_def_cfa_offset 16
 304              		.cfi_offset 6, -16
 305 0001 4889E5   		movq	%rsp, %rbp	#,
 306              		.cfi_def_cfa_register 6
 307 0004 53       		pushq	%rbx	#
 308 0005 4883EC18 		subq	$24, %rsp	#,
 309              		.cfi_offset 3, -24
 310 0009 48897DE8 		movq	%rdi, -24(%rbp)	# this, this
 311 000d 488975E0 		movq	%rsi, -32(%rbp)	# D.46695, D.46695
 312              	# Catalog.cpp:48: struct Catalog {
 313              		.loc 2 48 8
 314 0011 488B55E0 		movq	-32(%rbp), %rdx	# D.46695, _1
 315 0015 488B45E8 		movq	-24(%rbp), %rax	# this, _2
 316 0019 4889D6   		movq	%rdx, %rsi	# _1,
 317 001c 4889C7   		movq	%rax, %rdi	# _2,
 318 001f E8000000 		call	_ZNSt7__cxx1112basic_stringIcSt11char_traitsIcESaIcEEaSEOS4_@PLT	#
 318      00
 319 0024 488B45E0 		movq	-32(%rbp), %rax	# D.46695, tmp97
 320 0028 488D5020 		leaq	32(%rax), %rdx	#, _3
 321 002c 488B45E8 		movq	-24(%rbp), %rax	# this, tmp98
 322 0030 4883C020 		addq	$32, %rax	#, _4
 323 0034 4889D6   		movq	%rdx, %rsi	# _3,
 324 0037 4889C7   		movq	%rax, %rdi	# _4,
 325 003a E8000000 		call	_ZNSt7__cxx1112basic_stringIcSt11char_traitsIcESaIcEEaSEOS4_@PLT	#
 325      00
 326 003f 488B45E0 		movq	-32(%rbp), %rax	# D.46695, tmp99
 327 0043 488D5040 		leaq	64(%rax), %rdx	#, _5
 328 0047 488B45E8 		movq	-24(%rbp), %rax	# this, tmp100
 329 004b 4883C040 		addq	$64, %rax	#, _6
 330 004f 4889D6   		movq	%rdx, %rsi	# _5,
 331 0052 4889C7   		movq	%rax, %rdi	# _6,
 332 0055 E8000000 		call	_ZNSt7__cxx1112basic_stringIcSt11char_traitsIcESaIcEEaSEOS4_@PLT	#
 332      00
 333 005a 488B45E0 		movq	-32(%rbp), %rax	# D.46695, tmp101
 334 005e 8B5060   		movl	96(%rax), %edx	# _9(D)->word_count, _7
 335 0061 488B45E8 		movq	-24(%rbp), %rax	# this, tmp102
 336 0065 895060   		movl	%edx, 96(%rax)	# _7, this_10(D)->word_count
 337 0068 488B45E8 		movq	-24(%rbp), %rax	# this, tmp103
 338 006c 488B55E0 		movq	-32(%rbp), %rdx	# D.46695, tmp104
 339 0070 488B4A64 		movq	100(%rdx), %rcx	# _9(D)->count, tmp105
 340 0074 488B5A6C 		movq	108(%rdx), %rbx	# _9(D)->count,
 341 0078 48894864 		movq	%rcx, 100(%rax)	# tmp105, this_10(D)->count
 342 007c 4889586C 		movq	%rbx, 108(%rax)	#, this_10(D)->count
 343 0080 488B4A74 		movq	116(%rdx), %rcx	# _9(D)->count, tmp106
 344 0084 488B5A7C 		movq	124(%rdx), %rbx	# _9(D)->count,
 345 0088 48894874 		movq	%rcx, 116(%rax)	# tmp106, this_10(D)->count
 346 008c 4889587C 		movq	%rbx, 124(%rax)	#, this_10(D)->count
 347 0090 488B8A84 		movq	132(%rdx), %rcx	# _9(D)->count, tmp107
 347      000000
 348 0097 488B9A8C 		movq	140(%rdx), %rbx	# _9(D)->count,
 348      000000
 349 009e 48898884 		movq	%rcx, 132(%rax)	# tmp107, this_10(D)->count
 349      000000
 350 00a5 4889988C 		movq	%rbx, 140(%rax)	#, this_10(D)->count
 350      000000
 351 00ac 488B8A94 		movq	148(%rdx), %rcx	# _9(D)->count, tmp108
 351      000000
 352 00b3 488B9A9C 		movq	156(%rdx), %rbx	# _9(D)->count,
 352      000000
 353 00ba 48898894 		movq	%rcx, 148(%rax)	# tmp108, this_10(D)->count
 353      000000
 354 00c1 4889989C 		movq	%rbx, 156(%rax)	#, this_10(D)->count
 354      000000
 355 00c8 488B8AA4 		movq	164(%rdx), %rcx	# _9(D)->count, tmp109
 355      000000
 356 00cf 488B9AAC 		movq	172(%rdx), %rbx	# _9(D)->count,
 356      000000
 357 00d6 488988A4 		movq	%rcx, 164(%rax)	# tmp109, this_10(D)->count
 357      000000
 358 00dd 488998AC 		movq	%rbx, 172(%rax)	#, this_10(D)->count
 358      000000
 359 00e4 488B8AB4 		movq	180(%rdx), %rcx	# _9(D)->count, tmp110
 359      000000
 360 00eb 488B9ABC 		movq	188(%rdx), %rbx	# _9(D)->count,
 360      000000
 361 00f2 488988B4 		movq	%rcx, 180(%rax)	# tmp110, this_10(D)->count
 361      000000
 362 00f9 488998BC 		movq	%rbx, 188(%rax)	#, this_10(D)->count
 362      000000
 363 0100 488B8AC4 		movq	196(%rdx), %rcx	# _9(D)->count, tmp111
 363      000000
 364 0107 488B9ACC 		movq	204(%rdx), %rbx	# _9(D)->count,
 364      000000
 365 010e 488988C4 		movq	%rcx, 196(%rax)	# tmp111, this_10(D)->count
 365      000000
 366 0115 488998CC 		movq	%rbx, 204(%rax)	#, this_10(D)->count
 366      000000
 367 011c 488B8AD4 		movq	212(%rdx), %rcx	# _9(D)->count, tmp112
 367      000000
 368 0123 488B9ADC 		movq	220(%rdx), %rbx	# _9(D)->count,
 368      000000
 369 012a 488988D4 		movq	%rcx, 212(%rax)	# tmp112, this_10(D)->count
 369      000000
 370 0131 488998DC 		movq	%rbx, 220(%rax)	#, this_10(D)->count
 370      000000
 371 0138 488B8AE4 		movq	228(%rdx), %rcx	# _9(D)->count, tmp113
 371      000000
 372 013f 488B9AEC 		movq	236(%rdx), %rbx	# _9(D)->count,
 372      000000
 373 0146 488988E4 		movq	%rcx, 228(%rax)	# tmp113, this_10(D)->count
 373      000000
 374 014d 488998EC 		movq	%rbx, 236(%rax)	#, this_10(D)->count
 374      000000
 375 0154 488B8AF4 		movq	244(%rdx), %rcx	# _9(D)->count, tmp114
 375      000000
 376 015b 488B9AFC 		movq	252(%rdx), %rbx	# _9(D)->count,
 376      000000
 377 0162 488988F4 		movq	%rcx, 244(%rax)	# tmp114, this_10(D)->count
 377      000000
 378 0169 488998FC 		movq	%rbx, 252(%rax)	#, this_10(D)->count
 378      000000
 379 0170 488B8A04 		movq	260(%rdx), %rcx	# _9(D)->count, tmp115
 379      010000
 380 0177 488B9A0C 		movq	268(%rdx), %rbx	# _9(D)->count,
 380      010000
 381 017e 48898804 		movq	%rcx, 260(%rax)	# tmp115, this_10(D)->count
 381      010000
 382 0185 4889980C 		movq	%rbx, 268(%rax)	#, this_10(D)->count
 382      010000
 383 018c 488B8A14 		movq	276(%rdx), %rcx	# _9(D)->count, tmp116
 383      010000
 384 0193 488B9A1C 		movq	284(%rdx), %rbx	# _9(D)->count,
 384      010000
 385 019a 48898814 		movq	%rcx, 276(%rax)	# tmp116, this_10(D)->count
 385      010000
 386 01a1 4889981C 		movq	%rbx, 284(%rax)	#, this_10(D)->count
 386      010000
 387 01a8 488B8A2C 		movq	300(%rdx), %rcx	# _9(D)->count,
 387      010000
 388 01af 488B9224 		movq	292(%rdx), %rdx	# _9(D)->count, tmp117
 388      010000
 389 01b6 48899024 		movq	%rdx, 292(%rax)	# tmp117, this_10(D)->count
 389      010000
 390 01bd 4889882C 		movq	%rcx, 300(%rax)	#, this_10(D)->count
 390      010000
 391 01c4 488B45E0 		movq	-32(%rbp), %rax	# D.46695, tmp118
 392 01c8 8B903401 		movl	308(%rax), %edx	# _9(D)->line_count, _8
 392      0000
 393 01ce 488B45E8 		movq	-24(%rbp), %rax	# this, tmp119
 394 01d2 89903401 		movl	%edx, 308(%rax)	# _8, this_10(D)->line_count
 394      0000
 395 01d8 488B45E8 		movq	-24(%rbp), %rax	# this, _18
 396 01dc 4883C418 		addq	$24, %rsp	#,
 397 01e0 5B       		popq	%rbx	#
 398 01e1 5D       		popq	%rbp	#
 399              		.cfi_def_cfa 7, 8
 400 01e2 C3       		ret	
 401              		.cfi_endproc
 402              	.LFE2163:
 404              		.section	.rodata
 405              	.LC0:
 406 0001 43617461 		.string	"Catalog output:\n"
 406      6C6F6720 
 406      6F757470 
 406      75743A0A 
 406      00
 407              		.text
 408              		.globl	main
 410              	main:
 411              	.LFB2153:
  49:Catalog.cpp   **** 
  50:Catalog.cpp   ****     string title;
  51:Catalog.cpp   ****     string first_name;
  52:Catalog.cpp   ****     string last_name;
  53:Catalog.cpp   ****     int word_count = 0;
  54:Catalog.cpp   ****     Letter_Count count[26];
  55:Catalog.cpp   ****     int line_count = 0;
  56:Catalog.cpp   **** 
  57:Catalog.cpp   **** };
  58:Catalog.cpp   **** 
  59:Catalog.cpp   **** // Opens file
  60:Catalog.cpp   **** void get_file(fstream*);
  61:Catalog.cpp   **** // Fills catalog struct
  62:Catalog.cpp   **** Catalog fill_catalog(fstream *);
  63:Catalog.cpp   **** // Checks if char is puncuation or a space
  64:Catalog.cpp   **** bool word_check(char);
  65:Catalog.cpp   **** // Returns a formated string from the structure of Catalog
  66:Catalog.cpp   **** string catalog_card(Catalog &);
  67:Catalog.cpp   **** // Saves the catalog to a file
  68:Catalog.cpp   **** void output_catalog(string&);
  69:Catalog.cpp   **** 
  70:Catalog.cpp   **** //Returns if the user wants to continue
  71:Catalog.cpp   **** bool continue_entry();
  72:Catalog.cpp   **** // Returns total letter count
  73:Catalog.cpp   **** int letter_total(Catalog&);
  74:Catalog.cpp   **** // Prints the letter frequency percent
  75:Catalog.cpp   **** void letter_output(Catalog&);
  76:Catalog.cpp   **** 
  77:Catalog.cpp   **** int main() {
 412              		.loc 2 77 12
 413              		.cfi_startproc
 414              		.cfi_personality 0x9b,DW.ref.__gxx_personality_v0
 415              		.cfi_lsda 0x1b,.LLSDA2153
 416 0000 55       		pushq	%rbp	#
 417              		.cfi_def_cfa_offset 16
 418              		.cfi_offset 6, -16
 419 0001 4889E5   		movq	%rsp, %rbp	#,
 420              		.cfi_def_cfa_register 6
 421 0004 53       		pushq	%rbx	#
 422 0005 4881ECE8 		subq	$1256, %rsp	#,
 422      040000
 423              		.cfi_offset 3, -24
 424              	# Catalog.cpp:77: int main() {
 425              		.loc 2 77 12
 426 000c 64488B04 		movq	%fs:40, %rax	# MEM[(<address-space-1> long unsigned int *)40B], tmp125
 426      25280000 
 426      00
 427 0015 488945E8 		movq	%rax, -24(%rbp)	# tmp125, D.51539
 428 0019 31C0     		xorl	%eax, %eax	# tmp125
 429              	.L9:
 430              	.LBB4:
 431              	# Catalog.cpp:81:         fstream ifile;
  78:Catalog.cpp   **** 
  79:Catalog.cpp   ****     do {
  80:Catalog.cpp   ****         //create empty file stream object
  81:Catalog.cpp   ****         fstream ifile;
 432              		.loc 2 81 17
 433 001b 488D85D0 		leaq	-560(%rbp), %rax	#, tmp93
 433      FDFFFF
 434 0022 4889C7   		movq	%rax, %rdi	# tmp93,
 435              	.LEHB0:
 436 0025 E8000000 		call	_ZNSt13basic_fstreamIcSt11char_traitsIcEEC1Ev@PLT	#
 436      00
 437              	.LEHE0:
 438              	# Catalog.cpp:83:         Catalog entry;
  82:Catalog.cpp   ****         //create empty Catalog object for use
  83:Catalog.cpp   ****         Catalog entry;
 439              		.loc 2 83 17
 440 002a 488D8550 		leaq	-1200(%rbp), %rax	#, tmp94
 440      FBFFFF
 441 0031 4889C7   		movq	%rax, %rdi	# tmp94,
 442 0034 E8000000 		call	_ZN7CatalogC1Ev	#
 442      00
 443              	# Catalog.cpp:85:         string ostring;
  84:Catalog.cpp   ****         //create empty string for output and entry into
  85:Catalog.cpp   ****         string ostring;
 444              		.loc 2 85 16
 445 0039 488D8510 		leaq	-1264(%rbp), %rax	#, tmp95
 445      FBFFFF
 446 0040 4889C7   		movq	%rax, %rdi	# tmp95,
 447 0043 E8000000 		call	_ZNSt7__cxx1112basic_stringIcSt11char_traitsIcESaIcEEC1Ev@PLT	#
 447      00
 448              	# Catalog.cpp:88:         get_file(&ifile);
  86:Catalog.cpp   **** 
  87:Catalog.cpp   ****         //open the file in new stream
  88:Catalog.cpp   ****         get_file(&ifile);
 449              		.loc 2 88 17
 450 0048 488D85D0 		leaq	-560(%rbp), %rax	#, tmp96
 450      FDFFFF
 451 004f 4889C7   		movq	%rax, %rdi	# tmp96,
 452              	.LEHB1:
 453 0052 E8000000 		call	_Z8get_filePSt13basic_fstreamIcSt11char_traitsIcEE	#
 453      00
 454              	# Catalog.cpp:90:         entry = fill_catalog(&ifile);
  89:Catalog.cpp   ****         //fill catalog from file stream and close
  90:Catalog.cpp   ****         entry = fill_catalog(&ifile);
 455              		.loc 2 90 29
 456 0057 488D8590 		leaq	-880(%rbp), %rax	#, tmp97
 456      FCFFFF
 457 005e 488D95D0 		leaq	-560(%rbp), %rdx	#, tmp98
 457      FDFFFF
 458 0065 4889D6   		movq	%rdx, %rsi	# tmp98,
 459 0068 4889C7   		movq	%rax, %rdi	# tmp97,
 460 006b E8000000 		call	_Z12fill_catalogPSt13basic_fstreamIcSt11char_traitsIcEE	#
 460      00
 461              	# Catalog.cpp:90:         entry = fill_catalog(&ifile);
 462              		.loc 2 90 36 discriminator 1
 463 0070 488D9590 		leaq	-880(%rbp), %rdx	#, tmp99
 463      FCFFFF
 464 0077 488D8550 		leaq	-1200(%rbp), %rax	#, tmp100
 464      FBFFFF
 465 007e 4889D6   		movq	%rdx, %rsi	# tmp99,
 466 0081 4889C7   		movq	%rax, %rdi	# tmp100,
 467 0084 E8000000 		call	_ZN7CatalogaSEOS_	#
 467      00
 468              	# Catalog.cpp:90:         entry = fill_catalog(&ifile);
 469              		.loc 2 90 29 discriminator 1
 470 0089 488D8590 		leaq	-880(%rbp), %rax	#, tmp101
 470      FCFFFF
 471 0090 4889C7   		movq	%rax, %rdi	# tmp101,
 472 0093 E8000000 		call	_ZN7CatalogD1Ev	#
 472      00
 473              	# Catalog.cpp:91:         ifile.close();
  91:Catalog.cpp   ****         ifile.close();
 474              		.loc 2 91 20 discriminator 1
 475 0098 488D85D0 		leaq	-560(%rbp), %rax	#, tmp102
 475      FDFFFF
 476 009f 4889C7   		movq	%rax, %rdi	# tmp102,
 477 00a2 E8000000 		call	_ZNSt13basic_fstreamIcSt11char_traitsIcEE5closeEv@PLT	#
 477      00
 478              	# Catalog.cpp:94:         ostring = catalog_card(entry);
  92:Catalog.cpp   **** 
  93:Catalog.cpp   ****         //Create String from the Catalog
  94:Catalog.cpp   ****         ostring = catalog_card(entry);
 479              		.loc 2 94 31
 480 00a7 488D8530 		leaq	-1232(%rbp), %rax	#, tmp103
 480      FBFFFF
 481 00ae 488D9550 		leaq	-1200(%rbp), %rdx	#, tmp104
 481      FBFFFF
 482 00b5 4889D6   		movq	%rdx, %rsi	# tmp104,
 483 00b8 4889C7   		movq	%rax, %rdi	# tmp103,
 484 00bb E8000000 		call	_Z12catalog_cardB5cxx11R7Catalog	#
 484      00
 485              	# Catalog.cpp:94:         ostring = catalog_card(entry);
 486              		.loc 2 94 37 discriminator 1
 487 00c0 488D9530 		leaq	-1232(%rbp), %rdx	#, tmp105
 487      FBFFFF
 488 00c7 488D8510 		leaq	-1264(%rbp), %rax	#, tmp106
 488      FBFFFF
 489 00ce 4889D6   		movq	%rdx, %rsi	# tmp105,
 490 00d1 4889C7   		movq	%rax, %rdi	# tmp106,
 491 00d4 E8000000 		call	_ZNSt7__cxx1112basic_stringIcSt11char_traitsIcESaIcEEaSEOS4_@PLT	#
 491      00
 492              	# Catalog.cpp:94:         ostring = catalog_card(entry);
 493              		.loc 2 94 31 discriminator 1
 494 00d9 488D8530 		leaq	-1232(%rbp), %rax	#, tmp107
 494      FBFFFF
 495 00e0 4889C7   		movq	%rax, %rdi	# tmp107,
 496 00e3 E8000000 		call	_ZNSt7__cxx1112basic_stringIcSt11char_traitsIcESaIcEED1Ev@PLT	#
 496      00
 497              	# Catalog.cpp:97:         cout << "Catalog output:\n" << ostring << endl;
  95:Catalog.cpp   **** 
  96:Catalog.cpp   ****         //output this entry
  97:Catalog.cpp   ****         cout << "Catalog output:\n" << ostring << endl;
 498              		.loc 2 97 40 discriminator 1
 499 00e8 488D3500 		leaq	.LC0(%rip), %rsi	#,
 499      000000
 500 00ef 488D3D00 		leaq	_ZSt4cout(%rip), %rdi	#,
 500      000000
 501 00f6 E8000000 		call	_ZStlsISt11char_traitsIcEERSt13basic_ostreamIcT_ES5_PKc@PLT	#
 501      00
 502 00fb 4889C2   		movq	%rax, %rdx	#, _1
 503 00fe 488D8510 		leaq	-1264(%rbp), %rax	#, tmp108
 503      FBFFFF
 504 0105 4889C6   		movq	%rax, %rsi	# tmp108,
 505 0108 4889D7   		movq	%rdx, %rdi	# _1,
 506 010b E8000000 		call	_ZStlsIcSt11char_traitsIcESaIcEERSt13basic_ostreamIT_T0_ES7_RKNSt7__cxx1112basic_stringIS4_S5
 506      00
 507 0110 4889C2   		movq	%rax, %rdx	#, _2
 508              	# Catalog.cpp:97:         cout << "Catalog output:\n" << ostring << endl;
 509              		.loc 2 97 51 discriminator 1
 510 0113 488B0500 		movq	_ZSt4endlIcSt11char_traitsIcEERSt13basic_ostreamIT_T0_ES6_@GOTPCREL(%rip), %rax	#, tmp109
 510      000000
 511 011a 4889C6   		movq	%rax, %rsi	# tmp109,
 512 011d 4889D7   		movq	%rdx, %rdi	# _2,
 513 0120 E8000000 		call	_ZNSolsEPFRSoS_E@PLT	#
 513      00
 514              	# Catalog.cpp:100:         letter_output(entry);
  98:Catalog.cpp   **** 
  99:Catalog.cpp   ****         //output the letter frequency if they want
 100:Catalog.cpp   ****         letter_output(entry);
 515              		.loc 2 100 22
 516 0125 488D8550 		leaq	-1200(%rbp), %rax	#, tmp110
 516      FBFFFF
 517 012c 4889C7   		movq	%rax, %rdi	# tmp110,
 518 012f E8000000 		call	_Z13letter_outputR7Catalog	#
 518      00
 519              	# Catalog.cpp:103:         output_catalog(ostring);
 101:Catalog.cpp   **** 
 102:Catalog.cpp   ****         //Output into file
 103:Catalog.cpp   ****         output_catalog(ostring);
 520              		.loc 2 103 23
 521 0134 488D8510 		leaq	-1264(%rbp), %rax	#, tmp111
 521      FBFFFF
 522 013b 4889C7   		movq	%rax, %rdi	# tmp111,
 523 013e E8000000 		call	_Z14output_catalogRNSt7__cxx1112basic_stringIcSt11char_traitsIcESaIcEEE	#
 523      00
 524              	.LEHE1:
 525              	# Catalog.cpp:85:         string ostring;
  85:Catalog.cpp   **** 
 526              		.loc 2 85 16
 527 0143 488D8510 		leaq	-1264(%rbp), %rax	#, tmp112
 527      FBFFFF
 528 014a 4889C7   		movq	%rax, %rdi	# tmp112,
 529 014d E8000000 		call	_ZNSt7__cxx1112basic_stringIcSt11char_traitsIcESaIcEED1Ev@PLT	#
 529      00
 530              	# Catalog.cpp:83:         Catalog entry;
  83:Catalog.cpp   ****         //create empty string for output and entry into
 531              		.loc 2 83 17
 532 0152 488D8550 		leaq	-1200(%rbp), %rax	#, tmp113
 532      FBFFFF
 533 0159 4889C7   		movq	%rax, %rdi	# tmp113,
 534 015c E8000000 		call	_ZN7CatalogD1Ev	#
 534      00
 535              	# Catalog.cpp:81:         fstream ifile;
  81:Catalog.cpp   ****         //create empty Catalog object for use
 536              		.loc 2 81 17
 537 0161 488D85D0 		leaq	-560(%rbp), %rax	#, tmp114
 537      FDFFFF
 538 0168 4889C7   		movq	%rax, %rdi	# tmp114,
 539 016b E8000000 		call	_ZNSt13basic_fstreamIcSt11char_traitsIcEED1Ev@PLT	#
 539      00
 540              	.LEHB2:
 541              	.LBE4:
 542              	# Catalog.cpp:105:     } while(continue_entry());
 104:Catalog.cpp   **** 
 105:Catalog.cpp   ****     } while(continue_entry());
 543              		.loc 2 105 27
 544 0170 E8000000 		call	_Z14continue_entryv	#
 544      00
 545 0175 84C0     		testb	%al, %al	# _34
 546 0177 7405     		je	.L8	#,
 547              	# Catalog.cpp:79:     do {
  79:Catalog.cpp   ****         //create empty file stream object
 548              		.loc 2 79 5
 549 0179 E99DFEFF 		jmp	.L9	#
 549      FF
 550              	.L8:
 551              	# Catalog.cpp:106:     return 0;
 106:Catalog.cpp   ****     return 0;
 552              		.loc 2 106 12
 553 017e B8000000 		movl	$0, %eax	#, _36
 553      00
 554              	# Catalog.cpp:107: }
 107:Catalog.cpp   **** }
 555              		.loc 2 107 1
 556 0183 488B4DE8 		movq	-24(%rbp), %rcx	# D.51539, tmp126
 557 0187 6448330C 		xorq	%fs:40, %rcx	# MEM[(<address-space-1> long unsigned int *)40B], tmp126
 557      25280000 
 557      00
 558 0190 7442     		je	.L12	#,
 559 0192 EB3B     		jmp	.L14	#
 560              	.L13:
 561 0194 4889C3   		movq	%rax, %rbx	#, tmp118
 562              	.LBB5:
 563              	# Catalog.cpp:85:         string ostring;
  85:Catalog.cpp   **** 
 564              		.loc 2 85 16
 565 0197 488D8510 		leaq	-1264(%rbp), %rax	#, tmp116
 565      FBFFFF
 566 019e 4889C7   		movq	%rax, %rdi	# tmp116,
 567 01a1 E8000000 		call	_ZNSt7__cxx1112basic_stringIcSt11char_traitsIcESaIcEED1Ev@PLT	#
 567      00
 568              	# Catalog.cpp:83:         Catalog entry;
  83:Catalog.cpp   ****         //create empty string for output and entry into
 569              		.loc 2 83 17
 570 01a6 488D8550 		leaq	-1200(%rbp), %rax	#, tmp121
 570      FBFFFF
 571 01ad 4889C7   		movq	%rax, %rdi	# tmp121,
 572 01b0 E8000000 		call	_ZN7CatalogD1Ev	#
 572      00
 573              	# Catalog.cpp:81:         fstream ifile;
  81:Catalog.cpp   ****         //create empty Catalog object for use
 574              		.loc 2 81 17
 575 01b5 488D85D0 		leaq	-560(%rbp), %rax	#, tmp124
 575      FDFFFF
 576 01bc 4889C7   		movq	%rax, %rdi	# tmp124,
 577 01bf E8000000 		call	_ZNSt13basic_fstreamIcSt11char_traitsIcEED1Ev@PLT	#
 577      00
 578 01c4 4889D8   		movq	%rbx, %rax	# tmp122, D.51538
 579 01c7 4889C7   		movq	%rax, %rdi	# D.51538,
 580 01ca E8000000 		call	_Unwind_Resume@PLT	#
 580      00
 581              	.LEHE2:
 582              	.L14:
 583              	.LBE5:
 584              	# Catalog.cpp:107: }
 585              		.loc 2 107 1
 586 01cf E8000000 		call	__stack_chk_fail@PLT	#
 586      00
 587              	.L12:
 588 01d4 4881C4E8 		addq	$1256, %rsp	#,
 588      040000
 589 01db 5B       		popq	%rbx	#
 590 01dc 5D       		popq	%rbp	#
 591              		.cfi_def_cfa 7, 8
 592 01dd C3       		ret	
 593              		.cfi_endproc
 594              	.LFE2153:
 595              		.globl	__gxx_personality_v0
 596              		.section	.gcc_except_table,"a",@progbits
 597              	.LLSDA2153:
 598 0000 FF       		.byte	0xff
 599 0001 FF       		.byte	0xff
 600 0002 01       		.byte	0x1
 601 0003 0F       		.uleb128 .LLSDACSE2153-.LLSDACSB2153
 602              	.LLSDACSB2153:
 603 0004 25       		.uleb128 .LEHB0-.LFB2153
 604 0005 05       		.uleb128 .LEHE0-.LEHB0
 605 0006 00       		.uleb128 0
 606 0007 00       		.uleb128 0
 607 0008 52       		.uleb128 .LEHB1-.LFB2153
 608 0009 F101     		.uleb128 .LEHE1-.LEHB1
 609 000b 9403     		.uleb128 .L13-.LFB2153
 610 000d 00       		.uleb128 0
 611 000e F002     		.uleb128 .LEHB2-.LFB2153
 612 0010 5F       		.uleb128 .LEHE2-.LEHB2
 613 0011 00       		.uleb128 0
 614 0012 00       		.uleb128 0
 615              	.LLSDACSE2153:
 616              		.text
 618              		.section	.text._ZNSt9exceptionC2ERKS_,"axG",@progbits,_ZNSt9exceptionC5ERKS_,comdat
 619              		.align 2
 620              		.weak	_ZNSt9exceptionC2ERKS_
 622              	_ZNSt9exceptionC2ERKS_:
 623              	.LFB2166:
 624              		.file 3 "/usr/include/c++/8/bits/exception.h"
   1:/usr/include/c++/8/bits/exception.h **** // Exception Handling support header for -*- C++ -*-
   2:/usr/include/c++/8/bits/exception.h **** 
   3:/usr/include/c++/8/bits/exception.h **** // Copyright (C) 2016-2018 Free Software Foundation, Inc.
   4:/usr/include/c++/8/bits/exception.h **** //
   5:/usr/include/c++/8/bits/exception.h **** // This file is part of GCC.
   6:/usr/include/c++/8/bits/exception.h **** //
   7:/usr/include/c++/8/bits/exception.h **** // GCC is free software; you can redistribute it and/or modify
   8:/usr/include/c++/8/bits/exception.h **** // it under the terms of the GNU General Public License as published by
   9:/usr/include/c++/8/bits/exception.h **** // the Free Software Foundation; either version 3, or (at your option)
  10:/usr/include/c++/8/bits/exception.h **** // any later version.
  11:/usr/include/c++/8/bits/exception.h **** //
  12:/usr/include/c++/8/bits/exception.h **** // GCC is distributed in the hope that it will be useful,
  13:/usr/include/c++/8/bits/exception.h **** // but WITHOUT ANY WARRANTY; without even the implied warranty of
  14:/usr/include/c++/8/bits/exception.h **** // MERCHANTABILITY or FITNESS FOR A PARTICULAR PURPOSE.  See the
  15:/usr/include/c++/8/bits/exception.h **** // GNU General Public License for more details.
  16:/usr/include/c++/8/bits/exception.h **** //
  17:/usr/include/c++/8/bits/exception.h **** // Under Section 7 of GPL version 3, you are granted additional
  18:/usr/include/c++/8/bits/exception.h **** // permissions described in the GCC Runtime Library Exception, version
  19:/usr/include/c++/8/bits/exception.h **** // 3.1, as published by the Free Software Foundation.
  20:/usr/include/c++/8/bits/exception.h **** 
  21:/usr/include/c++/8/bits/exception.h **** // You should have received a copy of the GNU General Public License and
  22:/usr/include/c++/8/bits/exception.h **** // a copy of the GCC Runtime Library Exception along with this program;
  23:/usr/include/c++/8/bits/exception.h **** // see the files COPYING3 and COPYING.RUNTIME respectively.  If not, see
  24:/usr/include/c++/8/bits/exception.h **** // <http://www.gnu.org/licenses/>.
  25:/usr/include/c++/8/bits/exception.h **** 
  26:/usr/include/c++/8/bits/exception.h **** /** @file bits/exception.h
  27:/usr/include/c++/8/bits/exception.h ****  *  This is an internal header file, included by other library headers.
  28:/usr/include/c++/8/bits/exception.h ****  *  Do not attempt to use it directly.
  29:/usr/include/c++/8/bits/exception.h ****  */
  30:/usr/include/c++/8/bits/exception.h **** 
  31:/usr/include/c++/8/bits/exception.h **** #ifndef __EXCEPTION_H
  32:/usr/include/c++/8/bits/exception.h **** #define __EXCEPTION_H 1
  33:/usr/include/c++/8/bits/exception.h **** 
  34:/usr/include/c++/8/bits/exception.h **** #pragma GCC system_header
  35:/usr/include/c++/8/bits/exception.h **** 
  36:/usr/include/c++/8/bits/exception.h **** #pragma GCC visibility push(default)
  37:/usr/include/c++/8/bits/exception.h **** 
  38:/usr/include/c++/8/bits/exception.h **** #include <bits/c++config.h>
  39:/usr/include/c++/8/bits/exception.h **** 
  40:/usr/include/c++/8/bits/exception.h **** extern "C++" {
  41:/usr/include/c++/8/bits/exception.h **** 
  42:/usr/include/c++/8/bits/exception.h **** namespace std
  43:/usr/include/c++/8/bits/exception.h **** {
  44:/usr/include/c++/8/bits/exception.h ****   /**
  45:/usr/include/c++/8/bits/exception.h ****    * @defgroup exceptions Exceptions
  46:/usr/include/c++/8/bits/exception.h ****    * @ingroup diagnostics
  47:/usr/include/c++/8/bits/exception.h ****    *
  48:/usr/include/c++/8/bits/exception.h ****    * Classes and functions for reporting errors via exception classes.
  49:/usr/include/c++/8/bits/exception.h ****    * @{
  50:/usr/include/c++/8/bits/exception.h ****    */
  51:/usr/include/c++/8/bits/exception.h **** 
  52:/usr/include/c++/8/bits/exception.h ****   /**
  53:/usr/include/c++/8/bits/exception.h ****    *  @brief Base class for all library exceptions.
  54:/usr/include/c++/8/bits/exception.h ****    *
  55:/usr/include/c++/8/bits/exception.h ****    *  This is the base class for all exceptions thrown by the standard
  56:/usr/include/c++/8/bits/exception.h ****    *  library, and by certain language expressions.  You are free to derive
  57:/usr/include/c++/8/bits/exception.h ****    *  your own %exception classes, or use a different hierarchy, or to
  58:/usr/include/c++/8/bits/exception.h ****    *  throw non-class data (e.g., fundamental types).
  59:/usr/include/c++/8/bits/exception.h ****    */
  60:/usr/include/c++/8/bits/exception.h ****   class exception
 625              		.loc 3 60 9
 626              		.cfi_startproc
 627 0000 55       		pushq	%rbp	#
 628              		.cfi_def_cfa_offset 16
 629              		.cfi_offset 6, -16
 630 0001 4889E5   		movq	%rsp, %rbp	#,
 631              		.cfi_def_cfa_register 6
 632 0004 48897DF8 		movq	%rdi, -8(%rbp)	# this, this
 633 0008 488975F0 		movq	%rsi, -16(%rbp)	# D.3628, D.3628
 634              	.LBB6:
 635              	# /usr/include/c++/8/bits/exception.h:60:   class exception
 636              		.loc 3 60 9
 637 000c 488D1500 		leaq	16+_ZTVSt9exception(%rip), %rdx	#, _1
 637      000000
 638 0013 488B45F8 		movq	-8(%rbp), %rax	# this, tmp88
 639 0017 488910   		movq	%rdx, (%rax)	# _1, this_3(D)->_vptr.exception
 640              	.LBE6:
 641 001a 90       		nop	
 642 001b 5D       		popq	%rbp	#
 643              		.cfi_def_cfa 7, 8
 644 001c C3       		ret	
 645              		.cfi_endproc
 646              	.LFE2166:
 648              		.weak	_ZNSt9exceptionC1ERKS_
 649              		.set	_ZNSt9exceptionC1ERKS_,_ZNSt9exceptionC2ERKS_
 650              		.section	.rodata
 651 0012 00000000 		.align 8
 651      0000
 652              	.LC1:
 653 0018 506C6561 		.string	"Please input the file name to catalog: "
 653      73652069 
 653      6E707574 
 653      20746865 
 653      2066696C 
 654              	.LC2:
 655 0040 2A2A2A46 		.string	"***File read error***"
 655      696C6520 
 655      72656164 
 655      20657272 
 655      6F722A2A 
 656              		.text
 657              		.globl	_Z8get_filePSt13basic_fstreamIcSt11char_traitsIcEE
 659              	_Z8get_filePSt13basic_fstreamIcSt11char_traitsIcEE:
 660              	.LFB2164:
 108:Catalog.cpp   **** 
 109:Catalog.cpp   **** void get_file(fstream *ifile) {
 661              		.loc 2 109 31
 662              		.cfi_startproc
 663              		.cfi_personality 0x9b,DW.ref.__gxx_personality_v0
 664              		.cfi_lsda 0x1b,.LLSDA2164
 665 01de 55       		pushq	%rbp	#
 666              		.cfi_def_cfa_offset 16
 667              		.cfi_offset 6, -16
 668 01df 4889E5   		movq	%rsp, %rbp	#,
 669              		.cfi_def_cfa_register 6
 670 01e2 4154     		pushq	%r12	#
 671 01e4 53       		pushq	%rbx	#
 672 01e5 4881EC60 		subq	$608, %rsp	#,
 672      020000
 673              		.cfi_offset 12, -24
 674              		.cfi_offset 3, -32
 675 01ec 4889BD98 		movq	%rdi, -616(%rbp)	# ifile, ifile
 675      FDFFFF
 676              	# Catalog.cpp:109: void get_file(fstream *ifile) {
 677              		.loc 2 109 31
 678 01f3 64488B04 		movq	%fs:40, %rax	# MEM[(<address-space-1> long unsigned int *)40B], tmp123
 678      25280000 
 678      00
 679 01fc 488945E8 		movq	%rax, -24(%rbp)	# tmp123, D.51547
 680 0200 31C0     		xorl	%eax, %eax	# tmp123
 681              	.L18:
 682              	.LBB7:
 683              	# Catalog.cpp:115:         string input;
 110:Catalog.cpp   **** 
 111:Catalog.cpp   ****     //Continues until file opening is completed
 112:Catalog.cpp   ****     do {
 113:Catalog.cpp   **** 
 114:Catalog.cpp   ****         // Reads input from user as to the name of the file to be opened
 115:Catalog.cpp   ****         string input;
 684              		.loc 2 115 16
 685 0202 488D85B0 		leaq	-592(%rbp), %rax	#, tmp98
 685      FDFFFF
 686 0209 4889C7   		movq	%rax, %rdi	# tmp98,
 687 020c E8000000 		call	_ZNSt7__cxx1112basic_stringIcSt11char_traitsIcESaIcEEC1Ev@PLT	#
 687      00
 688              	# Catalog.cpp:116:         cout << "Please input the file name to catalog: ";
 116:Catalog.cpp   ****         cout << "Please input the file name to catalog: ";
 689              		.loc 2 116 17
 690 0211 488D3500 		leaq	.LC1(%rip), %rsi	#,
 690      000000
 691 0218 488D3D00 		leaq	_ZSt4cout(%rip), %rdi	#,
 691      000000
 692              	.LEHB3:
 693 021f E8000000 		call	_ZStlsISt11char_traitsIcEERSt13basic_ostreamIcT_ES5_PKc@PLT	#
 693      00
 694              	# Catalog.cpp:117:         cin >> input;
 117:Catalog.cpp   ****         cin >> input;
 695              		.loc 2 117 16
 696 0224 488D85B0 		leaq	-592(%rbp), %rax	#, tmp99
 696      FDFFFF
 697 022b 4889C6   		movq	%rax, %rsi	# tmp99,
 698 022e 488D3D00 		leaq	_ZSt3cin(%rip), %rdi	#,
 698      000000
 699 0235 E8000000 		call	_ZStrsIcSt11char_traitsIcESaIcEERSt13basic_istreamIT_T0_ES7_RNSt7__cxx1112basic_stringIS4_S5_
 699      00
 700              	# Catalog.cpp:118:         cin.ignore();
 118:Catalog.cpp   ****         cin.ignore();
 701              		.loc 2 118 20
 702 023a 488D3D00 		leaq	_ZSt3cin(%rip), %rdi	#,
 702      000000
 703 0241 E8000000 		call	_ZNSi6ignoreEv@PLT	#
 703      00
 704              	.LEHE3:
 705              	# Catalog.cpp:123:             *ifile = fstream(input, ios::in);
 119:Catalog.cpp   ****         
 120:Catalog.cpp   ****         try {
 121:Catalog.cpp   ****             // Attempts to open the by creating a new fstream
 122:Catalog.cpp   ****             // Honestly unsure whether this may leak memory
 123:Catalog.cpp   ****             *ifile = fstream(input, ios::in);
 706              		.loc 2 123 22
 707 0246 488D8DB0 		leaq	-592(%rbp), %rcx	#, tmp100
 707      FDFFFF
 708 024d 488D85D0 		leaq	-560(%rbp), %rax	#, tmp101
 708      FDFFFF
 709 0254 BA080000 		movl	$8, %edx	#,
 709      00
 710 0259 4889CE   		movq	%rcx, %rsi	# tmp100,
 711 025c 4889C7   		movq	%rax, %rdi	# tmp101,
 712              	.LEHB4:
 713 025f E8000000 		call	_ZNSt13basic_fstreamIcSt11char_traitsIcEEC1ERKNSt7__cxx1112basic_stringIcS1_SaIcEEESt13_Ios_O
 713      00
 714              	.LEHE4:
 715              	# Catalog.cpp:123:             *ifile = fstream(input, ios::in);
 716              		.loc 2 123 44 discriminator 1
 717 0264 488D95D0 		leaq	-560(%rbp), %rdx	#, tmp102
 717      FDFFFF
 718 026b 488B8598 		movq	-616(%rbp), %rax	# ifile, tmp103
 718      FDFFFF
 719 0272 4889D6   		movq	%rdx, %rsi	# tmp102,
 720 0275 4889C7   		movq	%rax, %rdi	# tmp103,
 721              	.LEHB5:
 722 0278 E8000000 		call	_ZNSt13basic_fstreamIcSt11char_traitsIcEEaSEOS2_@PLT	#
 722      00
 723              	.LEHE5:
 724              	# Catalog.cpp:123:             *ifile = fstream(input, ios::in);
 725              		.loc 2 123 22 discriminator 3
 726 027d 488D85D0 		leaq	-560(%rbp), %rax	#, tmp104
 726      FDFFFF
 727 0284 4889C7   		movq	%rax, %rdi	# tmp104,
 728 0287 E8000000 		call	_ZNSt13basic_fstreamIcSt11char_traitsIcEED1Ev@PLT	#
 728      00
 729              	.L23:
 730              	# Catalog.cpp:115:         string input;
 115:Catalog.cpp   ****         cout << "Please input the file name to catalog: ";
 731              		.loc 2 115 16
 732 028c 488D85B0 		leaq	-592(%rbp), %rax	#, tmp105
 732      FDFFFF
 733 0293 4889C7   		movq	%rax, %rdi	# tmp105,
 734 0296 E8000000 		call	_ZNSt7__cxx1112basic_stringIcSt11char_traitsIcESaIcEED1Ev@PLT	#
 734      00
 735              	.LBE7:
 736              	# Catalog.cpp:130:     }while(ifile->fail());
 124:Catalog.cpp   ****         }
 125:Catalog.cpp   ****         catch(exception) {
 126:Catalog.cpp   ****             // If it fails then rinse and repeat the file opening process
 127:Catalog.cpp   ****             cout << "***File read error***";
 128:Catalog.cpp   ****         }
 129:Catalog.cpp   ****     
 130:Catalog.cpp   ****     }while(ifile->fail());
 737              		.loc 2 130 23
 738 029b 488B8598 		movq	-616(%rbp), %rax	# ifile, tmp106
 738      FDFFFF
 739 02a2 488B00   		movq	(%rax), %rax	# ifile_19(D)->D.39185.D.35367._vptr.basic_istream, _4
 740 02a5 4883E818 		subq	$24, %rax	#, _5
 741 02a9 488B00   		movq	(%rax), %rax	# MEM[(long int *)_5], _6
 742 02ac 4889C2   		movq	%rax, %rdx	# _6, _7
 743 02af 488B8598 		movq	-616(%rbp), %rax	# ifile, tmp107
 743      FDFFFF
 744 02b6 4801D0   		addq	%rdx, %rax	# _7, _8
 745 02b9 4889C7   		movq	%rax, %rdi	# _8,
 746              	.LEHB6:
 747 02bc E8000000 		call	_ZNKSt9basic_iosIcSt11char_traitsIcEE4failEv@PLT	#
 747      00
 748              	.LEHE6:
 749 02c1 84C0     		testb	%al, %al	# _28
 750 02c3 0F84BA00 		je	.L30	#,
 750      0000
 751              	# Catalog.cpp:112:     do {
 112:Catalog.cpp   **** 
 752              		.loc 2 112 5
 753 02c9 E934FFFF 		jmp	.L18	#
 753      FF
 754              	.L28:
 755 02ce 4889C3   		movq	%rax, %rbx	#, tmp110
 756 02d1 4989D4   		movq	%rdx, %r12	#, tmp112
 757              	.LBB9:
 758              	# Catalog.cpp:123:             *ifile = fstream(input, ios::in);
 123:Catalog.cpp   ****         }
 759              		.loc 2 123 22
 760 02d4 488D85D0 		leaq	-560(%rbp), %rax	#, tmp108
 760      FDFFFF
 761 02db 4889C7   		movq	%rax, %rdi	# tmp108,
 762 02de E8000000 		call	_ZNSt13basic_fstreamIcSt11char_traitsIcEED1Ev@PLT	#
 762      00
 763 02e3 4C89E0   		movq	%r12, %rax	# tmp112, tmp111
 764 02e6 EB06     		jmp	.L20	#
 765              	.L27:
 766 02e8 4889C3   		movq	%rax, %rbx	#, tmp109
 767 02eb 4889D0   		movq	%rdx, %rax	#, tmp111
 768              	.L20:
 769 02ee 4883F801 		cmpq	$1, %rax	#, D.51545
 770 02f2 7402     		je	.L21	#,
 771 02f4 EB73     		jmp	.L22	#
 772              	.L21:
 773              	.LBB8:
 774              	# Catalog.cpp:125:         catch(exception) {
 125:Catalog.cpp   ****             // If it fails then rinse and repeat the file opening process
 775              		.loc 2 125 15
 776 02f6 4889D8   		movq	%rbx, %rax	# tmp109, _1
 777 02f9 4889C7   		movq	%rax, %rdi	# _1,
 778 02fc E8000000 		call	__cxa_get_exception_ptr@PLT	#
 778      00
 779 0301 4889C2   		movq	%rax, %rdx	#, _2
 780 0304 488D85A8 		leaq	-600(%rbp), %rax	#, tmp115
 780      FDFFFF
 781 030b 4889D6   		movq	%rdx, %rsi	# _2,
 782 030e 4889C7   		movq	%rax, %rdi	# tmp115,
 783 0311 E8000000 		call	_ZNSt9exceptionC1ERKS_	#
 783      00
 784 0316 4889D8   		movq	%rbx, %rax	# tmp109, _3
 785 0319 4889C7   		movq	%rax, %rdi	# _3,
 786 031c E8000000 		call	__cxa_begin_catch@PLT	#
 786      00
 787              	# Catalog.cpp:127:             cout << "***File read error***";
 127:Catalog.cpp   ****         }
 788              		.loc 2 127 21
 789 0321 488D3500 		leaq	.LC2(%rip), %rsi	#,
 789      000000
 790 0328 488D3D00 		leaq	_ZSt4cout(%rip), %rdi	#,
 790      000000
 791              	.LEHB7:
 792 032f E8000000 		call	_ZStlsISt11char_traitsIcEERSt13basic_ostreamIcT_ES5_PKc@PLT	#
 792      00
 793              	.LEHE7:
 794              	# Catalog.cpp:125:         catch(exception) {
 125:Catalog.cpp   ****             // If it fails then rinse and repeat the file opening process
 795              		.loc 2 125 15
 796 0334 488D85A8 		leaq	-600(%rbp), %rax	#, tmp116
 796      FDFFFF
 797 033b 4889C7   		movq	%rax, %rdi	# tmp116,
 798 033e E8000000 		call	_ZNSt9exceptionD1Ev@PLT	#
 798      00
 799 0343 E8000000 		call	__cxa_end_catch@PLT	#
 799      00
 800 0348 E93FFFFF 		jmp	.L23	#
 800      FF
 801              	.L29:
 802 034d 4889C3   		movq	%rax, %rbx	#, tmp119
 803 0350 488D85A8 		leaq	-600(%rbp), %rax	#, tmp117
 803      FDFFFF
 804 0357 4889C7   		movq	%rax, %rdi	# tmp117,
 805 035a E8000000 		call	_ZNSt9exceptionD1Ev@PLT	#
 805      00
 806 035f E8000000 		call	__cxa_end_catch@PLT	#
 806      00
 807 0364 EB03     		jmp	.L22	#
 808              	.L26:
 809 0366 4889C3   		movq	%rax, %rbx	#, tmp113
 810              	.L22:
 811              	.LBE8:
 812              	# Catalog.cpp:115:         string input;
 115:Catalog.cpp   ****         cout << "Please input the file name to catalog: ";
 813              		.loc 2 115 16
 814 0369 488D85B0 		leaq	-592(%rbp), %rax	#, tmp122
 814      FDFFFF
 815 0370 4889C7   		movq	%rax, %rdi	# tmp122,
 816 0373 E8000000 		call	_ZNSt7__cxx1112basic_stringIcSt11char_traitsIcESaIcEED1Ev@PLT	#
 816      00
 817 0378 4889D8   		movq	%rbx, %rax	# tmp113, D.51546
 818 037b 4889C7   		movq	%rax, %rdi	# D.51546,
 819              	.LEHB8:
 820 037e E8000000 		call	_Unwind_Resume@PLT	#
 820      00
 821              	.LEHE8:
 822              	.L30:
 823              	.LBE9:
 824              	# Catalog.cpp:131: }
 131:Catalog.cpp   **** }
 825              		.loc 2 131 1
 826 0383 90       		nop	
 827 0384 488B45E8 		movq	-24(%rbp), %rax	# D.51547, tmp124
 828 0388 64483304 		xorq	%fs:40, %rax	# MEM[(<address-space-1> long unsigned int *)40B], tmp124
 828      25280000 
 828      00
 829 0391 7405     		je	.L25	#,
 830 0393 E8000000 		call	__stack_chk_fail@PLT	#
 830      00
 831              	.L25:
 832 0398 4881C460 		addq	$608, %rsp	#,
 832      020000
 833 039f 5B       		popq	%rbx	#
 834 03a0 415C     		popq	%r12	#
 835 03a2 5D       		popq	%rbp	#
 836              		.cfi_def_cfa 7, 8
 837 03a3 C3       		ret	
 838              		.cfi_endproc
 839              	.LFE2164:
 840              		.section	.gcc_except_table
 841 0013 00       		.align 4
 842              	.LLSDA2164:
 843 0014 FF       		.byte	0xff
 844 0015 9B       		.byte	0x9b
 845 0016 2D       		.uleb128 .LLSDATT2164-.LLSDATTD2164
 846              	.LLSDATTD2164:
 847 0017 01       		.byte	0x1
 848 0018 21       		.uleb128 .LLSDACSE2164-.LLSDACSB2164
 849              	.LLSDACSB2164:
 850 0019 41       		.uleb128 .LEHB3-.LFB2164
 851 001a 27       		.uleb128 .LEHE3-.LEHB3
 852 001b 8803     		.uleb128 .L26-.LFB2164
 853 001d 00       		.uleb128 0
 854 001e 8101     		.uleb128 .LEHB4-.LFB2164
 855 0020 05       		.uleb128 .LEHE4-.LEHB4
 856 0021 8A02     		.uleb128 .L27-.LFB2164
 857 0023 03       		.uleb128 0x3
 858 0024 9A01     		.uleb128 .LEHB5-.LFB2164
 859 0026 05       		.uleb128 .LEHE5-.LEHB5
 860 0027 F001     		.uleb128 .L28-.LFB2164
 861 0029 03       		.uleb128 0x3
 862 002a DE01     		.uleb128 .LEHB6-.LFB2164
 863 002c 05       		.uleb128 .LEHE6-.LEHB6
 864 002d 00       		.uleb128 0
 865 002e 00       		.uleb128 0
 866 002f D102     		.uleb128 .LEHB7-.LFB2164
 867 0031 05       		.uleb128 .LEHE7-.LEHB7
 868 0032 EF02     		.uleb128 .L29-.LFB2164
 869 0034 00       		.uleb128 0
 870 0035 A003     		.uleb128 .LEHB8-.LFB2164
 871 0037 05       		.uleb128 .LEHE8-.LEHB8
 872 0038 00       		.uleb128 0
 873 0039 00       		.uleb128 0
 874              	.LLSDACSE2164:
 875 003a 00       		.byte	0
 876 003b 00       		.byte	0
 877 003c 01       		.byte	0x1
 878 003d 7D       		.byte	0x7d
 879 003e 0000     		.align 4
 880 0040 00000000 		.long	DW.ref._ZTISt9exception-.
 881              	.LLSDATT2164:
 882              		.text
 884              		.section	.rodata
 885              	.LC3:
 886 0056 436F6E74 		.string	"Contents:"
 886      656E7473 
 886      3A00
 887              		.text
 888              		.globl	_Z12fill_catalogPSt13basic_fstreamIcSt11char_traitsIcEE
 890              	_Z12fill_catalogPSt13basic_fstreamIcSt11char_traitsIcEE:
 891              	.LFB2168:
 132:Catalog.cpp   **** 
 133:Catalog.cpp   **** Catalog fill_catalog(fstream *ifile) {
 892              		.loc 2 133 38
 893              		.cfi_startproc
 894              		.cfi_personality 0x9b,DW.ref.__gxx_personality_v0
 895              		.cfi_lsda 0x1b,.LLSDA2168
 896 03a4 55       		pushq	%rbp	#
 897              		.cfi_def_cfa_offset 16
 898              		.cfi_offset 6, -16
 899 03a5 4889E5   		movq	%rsp, %rbp	#,
 900              		.cfi_def_cfa_register 6
 901 03a8 4154     		pushq	%r12	#
 902 03aa 53       		pushq	%rbx	#
 903 03ab 4881ECA0 		subq	$160, %rsp	#,
 903      000000
 904              		.cfi_offset 12, -24
 905              		.cfi_offset 3, -32
 906 03b2 4889BD58 		movq	%rdi, -168(%rbp)	# .result_ptr, .result_ptr
 906      FFFFFF
 907 03b9 4889B550 		movq	%rsi, -176(%rbp)	# ifile, ifile
 907      FFFFFF
 908              	# Catalog.cpp:133: Catalog fill_catalog(fstream *ifile) {
 909              		.loc 2 133 38
 910 03c0 64488B04 		movq	%fs:40, %rax	# MEM[(<address-space-1> long unsigned int *)40B], tmp215
 910      25280000 
 910      00
 911 03c9 488945E8 		movq	%rax, -24(%rbp)	# tmp215, D.51554
 912 03cd 31C0     		xorl	%eax, %eax	# tmp215
 913              	# Catalog.cpp:136:     Catalog output;
 134:Catalog.cpp   ****     
 135:Catalog.cpp   ****     //init the output catalog
 136:Catalog.cpp   ****     Catalog output;
 914              		.loc 2 136 13
 915 03cf 488B8558 		movq	-168(%rbp), %rax	# <retval>, tmp142
 915      FFFFFF
 916 03d6 4889C7   		movq	%rax, %rdi	# tmp142,
 917 03d9 E8000000 		call	_ZN7CatalogC1Ev	#
 917      00
 918              	.LBB10:
 919              	# Catalog.cpp:139:     for(int i = 0; i < 26; i++) {
 137:Catalog.cpp   **** 
 138:Catalog.cpp   ****     //init letter counter
 139:Catalog.cpp   ****     for(int i = 0; i < 26; i++) {
 920              		.loc 2 139 13
 921 03de C7856CFF 		movl	$0, -148(%rbp)	#, i
 921      FFFF0000 
 921      0000
 922              	.L33:
 923              	# Catalog.cpp:139:     for(int i = 0; i < 26; i++) {
 924              		.loc 2 139 22 discriminator 3
 925 03e8 83BD6CFF 		cmpl	$25, -148(%rbp)	#, i
 925      FFFF19
 926 03ef 7F3E     		jg	.L32	#,
 927              	# Catalog.cpp:140:         output.count[i] = INIT_COUNT[i];
 140:Catalog.cpp   ****         output.count[i] = INIT_COUNT[i];
 928              		.loc 2 140 25 discriminator 2
 929 03f1 488B8558 		movq	-168(%rbp), %rax	# <retval>, tmp143
 929      FFFFFF
 930 03f8 8B956CFF 		movl	-148(%rbp), %edx	# i, tmp145
 930      FFFF
 931 03fe 4863D2   		movslq	%edx, %rdx	# tmp145, tmp144
 932 0401 488D4A0C 		leaq	12(%rdx), %rcx	#, tmp146
 933 0405 8B956CFF 		movl	-148(%rbp), %edx	# i, tmp148
 933      FFFF
 934 040b 4863D2   		movslq	%edx, %rdx	# tmp148, tmp147
 935 040e 488D34D5 		leaq	0(,%rdx,8), %rsi	#, tmp149
 935      00000000 
 936 0416 488D1500 		leaq	INIT_COUNT(%rip), %rdx	#, tmp150
 936      000000
 937 041d 488B1416 		movq	(%rsi,%rdx), %rdx	# INIT_COUNT, tmp151
 938 0421 488954C8 		movq	%rdx, 4(%rax,%rcx,8)	# tmp151, output_62(D)->count
 938      04
 939              	# Catalog.cpp:139:     for(int i = 0; i < 26; i++) {
 139:Catalog.cpp   ****         output.count[i] = INIT_COUNT[i];
 940              		.loc 2 139 5 discriminator 2
 941 0426 83856CFF 		addl	$1, -148(%rbp)	#, i
 941      FFFF01
 942 042d EBB9     		jmp	.L33	#
 943              	.L32:
 944              	.LBE10:
 945              	# Catalog.cpp:144:     getline(*ifile, output.title, '\r');
 141:Catalog.cpp   ****     }
 142:Catalog.cpp   **** 
 143:Catalog.cpp   ****     //get line which contains the title
 144:Catalog.cpp   ****     getline(*ifile, output.title, '\r');
 946              		.loc 2 144 28
 947 042f 488B8D58 		movq	-168(%rbp), %rcx	# <retval>, _1
 947      FFFFFF
 948              	# Catalog.cpp:144:     getline(*ifile, output.title, '\r');
 949              		.loc 2 144 39
 950 0436 488B8550 		movq	-176(%rbp), %rax	# ifile, _2
 950      FFFFFF
 951 043d BA0D0000 		movl	$13, %edx	#,
 951      00
 952 0442 4889CE   		movq	%rcx, %rsi	# _1,
 953 0445 4889C7   		movq	%rax, %rdi	# _2,
 954              	.LEHB9:
 955 0448 E8000000 		call	_ZSt7getlineIcSt11char_traitsIcESaIcEERSt13basic_istreamIT_T0_ES7_RNSt7__cxx1112basic_stringI
 955      00
 956              	# Catalog.cpp:145:     ifile -> ignore();
 145:Catalog.cpp   ****     ifile -> ignore();
 957              		.loc 2 145 21
 958 044d 488B8550 		movq	-176(%rbp), %rax	# ifile, _3
 958      FFFFFF
 959 0454 4889C7   		movq	%rax, %rdi	# _3,
 960 0457 E8000000 		call	_ZNSi6ignoreEv@PLT	#
 960      00
 961              	# Catalog.cpp:148:     getline(*ifile, output.first_name, '\r');
 146:Catalog.cpp   **** 
 147:Catalog.cpp   ****     //get line which contains the authors name
 148:Catalog.cpp   ****     getline(*ifile, output.first_name, '\r');
 962              		.loc 2 148 28
 963 045c 488B8558 		movq	-168(%rbp), %rax	# <retval>, tmp152
 963      FFFFFF
 964 0463 488D4820 		leaq	32(%rax), %rcx	#, _4
 965              	# Catalog.cpp:148:     getline(*ifile, output.first_name, '\r');
 966              		.loc 2 148 44
 967 0467 488B8550 		movq	-176(%rbp), %rax	# ifile, _5
 967      FFFFFF
 968 046e BA0D0000 		movl	$13, %edx	#,
 968      00
 969 0473 4889CE   		movq	%rcx, %rsi	# _4,
 970 0476 4889C7   		movq	%rax, %rdi	# _5,
 971 0479 E8000000 		call	_ZSt7getlineIcSt11char_traitsIcESaIcEERSt13basic_istreamIT_T0_ES7_RNSt7__cxx1112basic_stringI
 971      00
 972              	# Catalog.cpp:149:     ifile -> ignore();
 149:Catalog.cpp   ****     ifile -> ignore();
 973              		.loc 2 149 21
 974 047e 488B8550 		movq	-176(%rbp), %rax	# ifile, _6
 974      FFFFFF
 975 0485 4889C7   		movq	%rax, %rdi	# _6,
 976 0488 E8000000 		call	_ZNSi6ignoreEv@PLT	#
 976      00
 977              	# Catalog.cpp:151:     output.last_name = output.first_name.substr(output.first_name.find(' ')+1);
 150:Catalog.cpp   ****     //splits the string at the space and gets the first and last name of the author
 151:Catalog.cpp   ****     output.last_name = output.first_name.substr(output.first_name.find(' ')+1);
 978              		.loc 2 151 48
 979 048d 488B8558 		movq	-168(%rbp), %rax	# <retval>, tmp153
 979      FFFFFF
 980 0494 488D5820 		leaq	32(%rax), %rbx	#, _7
 981              	# Catalog.cpp:151:     output.last_name = output.first_name.substr(output.first_name.find(' ')+1);
 982              		.loc 2 151 71
 983 0498 488B8558 		movq	-168(%rbp), %rax	# <retval>, tmp154
 983      FFFFFF
 984 049f 4883C020 		addq	$32, %rax	#, _8
 985 04a3 BA000000 		movl	$0, %edx	#,
 985      00
 986 04a8 BE200000 		movl	$32, %esi	#,
 986      00
 987 04ad 4889C7   		movq	%rax, %rdi	# _8,
 988 04b0 E8000000 		call	_ZNKSt7__cxx1112basic_stringIcSt11char_traitsIcESaIcEE4findEcm@PLT	#
 988      00
 989              	# Catalog.cpp:151:     output.last_name = output.first_name.substr(output.first_name.find(' ')+1);
 990              		.loc 2 151 48
 991 04b5 488D5001 		leaq	1(%rax), %rdx	#, _10
 992 04b9 488D4580 		leaq	-128(%rbp), %rax	#, tmp155
 993 04bd 48C7C1FF 		movq	$-1, %rcx	#,
 993      FFFFFF
 994 04c4 4889DE   		movq	%rbx, %rsi	# _7,
 995 04c7 4889C7   		movq	%rax, %rdi	# tmp155,
 996 04ca E8000000 		call	_ZNKSt7__cxx1112basic_stringIcSt11char_traitsIcESaIcEE6substrEmm@PLT	#
 996      00
 997              	# Catalog.cpp:151:     output.last_name = output.first_name.substr(output.first_name.find(' ')+1);
 998              		.loc 2 151 78 discriminator 1
 999 04cf 488B8558 		movq	-168(%rbp), %rax	# <retval>, tmp156
 999      FFFFFF
 1000 04d6 488D5040 		leaq	64(%rax), %rdx	#, _11
 1001 04da 488D4580 		leaq	-128(%rbp), %rax	#, tmp157
 1002 04de 4889C6   		movq	%rax, %rsi	# tmp157,
 1003 04e1 4889D7   		movq	%rdx, %rdi	# _11,
 1004 04e4 E8000000 		call	_ZNSt7__cxx1112basic_stringIcSt11char_traitsIcESaIcEEaSEOS4_@PLT	#
 1004      00
 1005              	# Catalog.cpp:151:     output.last_name = output.first_name.substr(output.first_name.find(' ')+1);
 1006              		.loc 2 151 48 discriminator 1
 1007 04e9 488D4580 		leaq	-128(%rbp), %rax	#, tmp158
 1008 04ed 4889C7   		movq	%rax, %rdi	# tmp158,
 1009 04f0 E8000000 		call	_ZNSt7__cxx1112basic_stringIcSt11char_traitsIcESaIcEED1Ev@PLT	#
 1009      00
 1010              	# Catalog.cpp:152:     output.first_name = output.first_name.erase(output.first_name.find(' '));
 152:Catalog.cpp   ****     output.first_name = output.first_name.erase(output.first_name.find(' '));
 1011              		.loc 2 152 76 discriminator 1
 1012 04f5 488B8558 		movq	-168(%rbp), %rax	# <retval>, tmp159
 1012      FFFFFF
 1013 04fc 488D5820 		leaq	32(%rax), %rbx	#, _12
 1014 0500 488B8558 		movq	-168(%rbp), %rax	# <retval>, tmp160
 1014      FFFFFF
 1015 0507 4883C020 		addq	$32, %rax	#, _13
 1016 050b BA000000 		movl	$0, %edx	#,
 1016      00
 1017 0510 BE200000 		movl	$32, %esi	#,
 1017      00
 1018 0515 4889C7   		movq	%rax, %rdi	# _13,
 1019 0518 E8000000 		call	_ZNKSt7__cxx1112basic_stringIcSt11char_traitsIcESaIcEE4findEcm@PLT	#
 1019      00
 1020 051d 48C7C2FF 		movq	$-1, %rdx	#,
 1020      FFFFFF
 1021 0524 4889C6   		movq	%rax, %rsi	# _14,
 1022 0527 4889DF   		movq	%rbx, %rdi	# _12,
 1023 052a E8000000 		call	_ZNSt7__cxx1112basic_stringIcSt11char_traitsIcESaIcEE5eraseEmm@PLT	#
 1023      00
 1024 052f 4889C2   		movq	%rax, %rdx	#, _15
 1025 0532 488B8558 		movq	-168(%rbp), %rax	# <retval>, tmp161
 1025      FFFFFF
 1026 0539 4883C020 		addq	$32, %rax	#, _16
 1027 053d 4889D6   		movq	%rdx, %rsi	# _15,
 1028 0540 4889C7   		movq	%rax, %rdi	# _16,
 1029 0543 E8000000 		call	_ZNSt7__cxx1112basic_stringIcSt11char_traitsIcESaIcEEaSERKS4_@PLT	#
 1029      00
 1030              	.LEHE9:
 1031              	# Catalog.cpp:155:     string temp;
 153:Catalog.cpp   **** 
 154:Catalog.cpp   ****     //Find Beginning of the content
 155:Catalog.cpp   ****     string temp;
 1032              		.loc 2 155 12
 1033 0548 488D45A0 		leaq	-96(%rbp), %rax	#, tmp162
 1034 054c 4889C7   		movq	%rax, %rdi	# tmp162,
 1035 054f E8000000 		call	_ZNSt7__cxx1112basic_stringIcSt11char_traitsIcESaIcEEC1Ev@PLT	#
 1035      00
 1036              	.L35:
 1037              	# Catalog.cpp:158:         getline(*ifile, temp);
 156:Catalog.cpp   ****     do{
 157:Catalog.cpp   ****         //get line ending on the return character
 158:Catalog.cpp   ****         getline(*ifile, temp);
 1038              		.loc 2 158 29
 1039 0554 488B8550 		movq	-176(%rbp), %rax	# ifile, _17
 1039      FFFFFF
 1040 055b 488D55A0 		leaq	-96(%rbp), %rdx	#, tmp163
 1041 055f 4889D6   		movq	%rdx, %rsi	# tmp163,
 1042 0562 4889C7   		movq	%rax, %rdi	# _17,
 1043              	.LEHB10:
 1044 0565 E8000000 		call	_ZSt7getlineIcSt11char_traitsIcESaIcEERSt13basic_istreamIT_T0_ES7_RNSt7__cxx1112basic_stringI
 1044      00
 1045              	# Catalog.cpp:161:     } while(!(temp.substr(0,9) == "Contents:"));
 159:Catalog.cpp   ****         //ignore any excess stream string
 160:Catalog.cpp   ****         //continues if the line is not contents
 161:Catalog.cpp   ****     } while(!(temp.substr(0,9) == "Contents:"));
 1046              		.loc 2 161 26
 1047 056a 488D45C0 		leaq	-64(%rbp), %rax	#, tmp164
 1048 056e 488D75A0 		leaq	-96(%rbp), %rsi	#, tmp165
 1049 0572 B9090000 		movl	$9, %ecx	#,
 1049      00
 1050 0577 BA000000 		movl	$0, %edx	#,
 1050      00
 1051 057c 4889C7   		movq	%rax, %rdi	# tmp164,
 1052 057f E8000000 		call	_ZNKSt7__cxx1112basic_stringIcSt11char_traitsIcESaIcEE6substrEmm@PLT	#
 1052      00
 1053              	# Catalog.cpp:161:     } while(!(temp.substr(0,9) == "Contents:"));
 1054              		.loc 2 161 32 discriminator 1
 1055 0584 488D45C0 		leaq	-64(%rbp), %rax	#, tmp166
 1056 0588 488D3500 		leaq	.LC3(%rip), %rsi	#,
 1056      000000
 1057 058f 4889C7   		movq	%rax, %rdi	# tmp166,
 1058 0592 E8000000 		call	_ZSteqIcSt11char_traitsIcESaIcEEbRKNSt7__cxx1112basic_stringIT_T0_T1_EEPKS5_	#
 1058      00
 1059              	# Catalog.cpp:161:     } while(!(temp.substr(0,9) == "Contents:"));
 1060              		.loc 2 161 13 discriminator 1
 1061 0597 83F001   		xorl	$1, %eax	#, _18
 1062 059a 89C3     		movl	%eax, %ebx	# _18, retval.2_85
 1063              	# Catalog.cpp:161:     } while(!(temp.substr(0,9) == "Contents:"));
 1064              		.loc 2 161 26 discriminator 1
 1065 059c 488D45C0 		leaq	-64(%rbp), %rax	#, tmp167
 1066 05a0 4889C7   		movq	%rax, %rdi	# tmp167,
 1067 05a3 E8000000 		call	_ZNSt7__cxx1112basic_stringIcSt11char_traitsIcESaIcEED1Ev@PLT	#
 1067      00
 1068              	# Catalog.cpp:161:     } while(!(temp.substr(0,9) == "Contents:"));
 1069              		.loc 2 161 13 discriminator 1
 1070 05a8 84DB     		testb	%bl, %bl	# retval.2_85
 1071 05aa 7402     		je	.L34	#,
 1072              	# Catalog.cpp:156:     do{
 156:Catalog.cpp   ****     do{
 1073              		.loc 2 156 5
 1074 05ac EBA6     		jmp	.L35	#
 1075              	.L34:
 1076              	# Catalog.cpp:165:     while(!(ifile->eof())) {
 162:Catalog.cpp   **** 
 163:Catalog.cpp   **** 
 164:Catalog.cpp   ****     //while not end of file
 165:Catalog.cpp   ****     while(!(ifile->eof())) {
 1077              		.loc 2 165 23
 1078 05ae 488B8550 		movq	-176(%rbp), %rax	# ifile, tmp168
 1078      FFFFFF
 1079 05b5 488B00   		movq	(%rax), %rax	# ifile_67(D)->D.39185.D.35367._vptr.basic_istream, _19
 1080 05b8 4883E818 		subq	$24, %rax	#, _20
 1081 05bc 488B00   		movq	(%rax), %rax	# MEM[(long int *)_20], _21
 1082 05bf 4889C2   		movq	%rax, %rdx	# _21, _22
 1083 05c2 488B8550 		movq	-176(%rbp), %rax	# ifile, tmp169
 1083      FFFFFF
 1084 05c9 4801D0   		addq	%rdx, %rax	# _22, _23
 1085 05cc 4889C7   		movq	%rax, %rdi	# _23,
 1086 05cf E8000000 		call	_ZNKSt9basic_iosIcSt11char_traitsIcEE3eofEv@PLT	#
 1086      00
 1087              	.LEHE10:
 1088              	# Catalog.cpp:165:     while(!(ifile->eof())) {
 1089              		.loc 2 165 11
 1090 05d4 83F001   		xorl	$1, %eax	#, retval.3_90
 1091 05d7 84C0     		testb	%al, %al	# retval.3_90
 1092 05d9 0F84F601 		je	.L57	#,
 1092      0000
 1093              	.LBB11:
 1094              	# Catalog.cpp:168:         char past= ' ';
 166:Catalog.cpp   ****         
 167:Catalog.cpp   ****         //Temp char array which will handle word detection
 168:Catalog.cpp   ****         char past= ' ';
 1095              		.loc 2 168 14
 1096 05df C6856AFF 		movb	$32, -150(%rbp)	#, past
 1096      FFFF20
 1097              	# Catalog.cpp:171:         string temp;
 169:Catalog.cpp   **** 
 170:Catalog.cpp   ****         //create temporary stream of each file line
 171:Catalog.cpp   ****         string temp;
 1098              		.loc 2 171 16
 1099 05e6 488D45C0 		leaq	-64(%rbp), %rax	#, tmp170
 1100 05ea 4889C7   		movq	%rax, %rdi	# tmp170,
 1101 05ed E8000000 		call	_ZNSt7__cxx1112basic_stringIcSt11char_traitsIcESaIcEEC1Ev@PLT	#
 1101      00
 1102              	# Catalog.cpp:172:         getline(*ifile, temp);
 172:Catalog.cpp   ****         getline(*ifile, temp);
 1103              		.loc 2 172 29
 1104 05f2 488B8550 		movq	-176(%rbp), %rax	# ifile, _25
 1104      FFFFFF
 1105 05f9 488D55C0 		leaq	-64(%rbp), %rdx	#, tmp171
 1106 05fd 4889D6   		movq	%rdx, %rsi	# tmp171,
 1107 0600 4889C7   		movq	%rax, %rdi	# _25,
 1108              	.LEHB11:
 1109 0603 E8000000 		call	_ZSt7getlineIcSt11char_traitsIcESaIcEERSt13basic_istreamIT_T0_ES7_RNSt7__cxx1112basic_stringI
 1109      00
 1110              	# Catalog.cpp:173:         ifile -> ignore();
 173:Catalog.cpp   ****         ifile -> ignore();
 1111              		.loc 2 173 25
 1112 0608 488B8550 		movq	-176(%rbp), %rax	# ifile, _26
 1112      FFFFFF
 1113 060f 4889C7   		movq	%rax, %rdi	# _26,
 1114 0612 E8000000 		call	_ZNSi6ignoreEv@PLT	#
 1114      00
 1115              	.LEHE11:
 1116              	# Catalog.cpp:177:             temp.erase(temp.find('\r'));
 174:Catalog.cpp   **** 
 175:Catalog.cpp   ****         try{
 176:Catalog.cpp   ****             // Clean the string of escapes
 177:Catalog.cpp   ****             temp.erase(temp.find('\r'));
 1117              		.loc 2 177 39
 1118 0617 488D45C0 		leaq	-64(%rbp), %rax	#, tmp172
 1119 061b BA000000 		movl	$0, %edx	#,
 1119      00
 1120 0620 BE0D0000 		movl	$13, %esi	#,
 1120      00
 1121 0625 4889C7   		movq	%rax, %rdi	# tmp172,
 1122 0628 E8000000 		call	_ZNKSt7__cxx1112basic_stringIcSt11char_traitsIcESaIcEE4findEcm@PLT	#
 1122      00
 1123 062d 4889C1   		movq	%rax, %rcx	#, _27
 1124 0630 488D45C0 		leaq	-64(%rbp), %rax	#, tmp173
 1125 0634 48C7C2FF 		movq	$-1, %rdx	#,
 1125      FFFFFF
 1126 063b 4889CE   		movq	%rcx, %rsi	# _27,
 1127 063e 4889C7   		movq	%rax, %rdi	# tmp173,
 1128              	.LEHB12:
 1129 0641 E8000000 		call	_ZNSt7__cxx1112basic_stringIcSt11char_traitsIcESaIcEE5eraseEmm@PLT	#
 1129      00
 1130              	.LEHE12:
 1131              	.L47:
 1132              	# Catalog.cpp:180:         output.line_count++;
 178:Catalog.cpp   ****         } catch(exception) {}
 179:Catalog.cpp   ****         //Iterate line counter
 180:Catalog.cpp   ****         output.line_count++;
 1133              		.loc 2 180 16
 1134 0646 488B8558 		movq	-168(%rbp), %rax	# <retval>, tmp174
 1134      FFFFFF
 1135 064d 8B803401 		movl	308(%rax), %eax	# output_62(D)->line_count, _31
 1135      0000
 1136              	# Catalog.cpp:180:         output.line_count++;
 1137              		.loc 2 180 26
 1138 0653 8D5001   		leal	1(%rax), %edx	#, _32
 1139 0656 488B8558 		movq	-168(%rbp), %rax	# <retval>, tmp175
 1139      FFFFFF
 1140 065d 89903401 		movl	%edx, 308(%rax)	# _32, output_62(D)->line_count
 1140      0000
 1141              	.LBB12:
 1142              	# Catalog.cpp:184:         for(int i = 0; i < temp.size(); i++) {
 181:Catalog.cpp   **** 
 182:Catalog.cpp   ****         
 183:Catalog.cpp   ****         //iterate word and letter counters
 184:Catalog.cpp   ****         for(int i = 0; i < temp.size(); i++) {
 1143              		.loc 2 184 17
 1144 0663 C78570FF 		movl	$0, -144(%rbp)	#, i
 1144      FFFF0000 
 1144      0000
 1145              	.L42:
 1146              	# Catalog.cpp:184:         for(int i = 0; i < temp.size(); i++) {
 1147              		.loc 2 184 26 discriminator 1
 1148 066d 8B8570FF 		movl	-144(%rbp), %eax	# i, tmp176
 1148      FFFF
 1149 0673 4863D8   		movslq	%eax, %rbx	# tmp176, _33
 1150              	# Catalog.cpp:184:         for(int i = 0; i < temp.size(); i++) {
 1151              		.loc 2 184 37 discriminator 1
 1152 0676 488D45C0 		leaq	-64(%rbp), %rax	#, tmp177
 1153 067a 4889C7   		movq	%rax, %rdi	# tmp177,
 1154 067d E8000000 		call	_ZNKSt7__cxx1112basic_stringIcSt11char_traitsIcESaIcEE4sizeEv@PLT	#
 1154      00
 1155              	# Catalog.cpp:184:         for(int i = 0; i < temp.size(); i++) {
 1156              		.loc 2 184 26 discriminator 1
 1157 0682 4839C3   		cmpq	%rax, %rbx	# _34, _33
 1158 0685 0F92C0   		setb	%al	#, retval.4_100
 1159 0688 84C0     		testb	%al, %al	# retval.4_100
 1160 068a 0F843401 		je	.L37	#,
 1160      0000
 1161              	.LBB13:
 1162              	# Catalog.cpp:187:             transform(temp.begin(), temp.end(), temp.begin(), ::toupper);
 185:Catalog.cpp   ****             
 186:Catalog.cpp   ****             //inputs character from line as uppercase for consistency
 187:Catalog.cpp   ****             transform(temp.begin(), temp.end(), temp.begin(), ::toupper);
 1163              		.loc 2 187 72
 1164 0690 488D45C0 		leaq	-64(%rbp), %rax	#, tmp178
 1165 0694 4889C7   		movq	%rax, %rdi	# tmp178,
 1166 0697 E8000000 		call	_ZNSt7__cxx1112basic_stringIcSt11char_traitsIcESaIcEE5beginEv@PLT	#
 1166      00
 1167 069c 4989C4   		movq	%rax, %r12	#, D.51399
 1168 069f 488D45C0 		leaq	-64(%rbp), %rax	#, tmp179
 1169 06a3 4889C7   		movq	%rax, %rdi	# tmp179,
 1170 06a6 E8000000 		call	_ZNSt7__cxx1112basic_stringIcSt11char_traitsIcESaIcEE3endEv@PLT	#
 1170      00
 1171 06ab 4889C3   		movq	%rax, %rbx	#, D.51400
 1172 06ae 488D45C0 		leaq	-64(%rbp), %rax	#, tmp180
 1173 06b2 4889C7   		movq	%rax, %rdi	# tmp180,
 1174 06b5 E8000000 		call	_ZNSt7__cxx1112basic_stringIcSt11char_traitsIcESaIcEE5beginEv@PLT	#
 1174      00
 1175 06ba 4889C7   		movq	%rax, %rdi	#, D.51401
 1176 06bd 488B0500 		movq	toupper@GOTPCREL(%rip), %rax	#, tmp181
 1176      000000
 1177 06c4 4889C1   		movq	%rax, %rcx	# tmp181,
 1178 06c7 4C89E2   		movq	%r12, %rdx	# D.51399,
 1179 06ca 4889DE   		movq	%rbx, %rsi	# D.51400,
 1180              	.LEHB13:
 1181 06cd E8000000 		call	_ZSt9transformIN9__gnu_cxx17__normal_iteratorIPcNSt7__cxx1112basic_stringIcSt11char_traitsIcE
 1181      00
 1182              	# Catalog.cpp:188:             char current = temp[i];
 188:Catalog.cpp   ****             char current = temp[i];
 1183              		.loc 2 188 34
 1184 06d2 8B8570FF 		movl	-144(%rbp), %eax	# i, tmp182
 1184      FFFF
 1185 06d8 4863D0   		movslq	%eax, %rdx	# tmp182, _35
 1186 06db 488D45C0 		leaq	-64(%rbp), %rax	#, tmp183
 1187 06df 4889D6   		movq	%rdx, %rsi	# _35,
 1188 06e2 4889C7   		movq	%rax, %rdi	# tmp183,
 1189 06e5 E8000000 		call	_ZNSt7__cxx1112basic_stringIcSt11char_traitsIcESaIcEEixEm@PLT	#
 1189      00
 1190              	.LEHE13:
 1191 06ea 0FB600   		movzbl	(%rax), %eax	# *_36, tmp184
 1192 06ed 88856BFF 		movb	%al, -149(%rbp)	# tmp184, current
 1192      FFFF
 1193              	.LBB14:
 1194              	# Catalog.cpp:190:             for(int j = 0; j < 26; j++) {
 189:Catalog.cpp   ****             //Check for each letter
 190:Catalog.cpp   ****             for(int j = 0; j < 26; j++) {
 1195              		.loc 2 190 21
 1196 06f3 C78574FF 		movl	$0, -140(%rbp)	#, j
 1196      FFFF0000 
 1196      0000
 1197              	.L40:
 1198              	# Catalog.cpp:190:             for(int j = 0; j < 26; j++) {
 1199              		.loc 2 190 30 discriminator 1
 1200 06fd 83BD74FF 		cmpl	$25, -140(%rbp)	#, j
 1200      FFFF19
 1201 0704 7F67     		jg	.L38	#,
 1202              	# Catalog.cpp:192:                 if(current == output.count[j].letter) {
 191:Catalog.cpp   ****                 //Check for matching letter in array
 192:Catalog.cpp   ****                 if(current == output.count[j].letter) {
 1203              		.loc 2 192 47
 1204 0706 488B8558 		movq	-168(%rbp), %rax	# <retval>, tmp185
 1204      FFFFFF
 1205 070d 8B9574FF 		movl	-140(%rbp), %edx	# j, tmp187
 1205      FFFF
 1206 0713 4863D2   		movslq	%edx, %rdx	# tmp187, tmp186
 1207 0716 4883C20C 		addq	$12, %rdx	#, tmp188
 1208 071a 0FB644D0 		movzbl	4(%rax,%rdx,8), %eax	# output_62(D)->count[j_48].letter, _37
 1208      04
 1209              	# Catalog.cpp:192:                 if(current == output.count[j].letter) {
 1210              		.loc 2 192 17
 1211 071f 38856BFF 		cmpb	%al, -149(%rbp)	# _37, current
 1211      FFFF
 1212 0725 753D     		jne	.L39	#,
 1213              	# Catalog.cpp:194:                     output.count[j].frequency++;
 193:Catalog.cpp   ****                     //increase frequency
 194:Catalog.cpp   ****                     output.count[j].frequency++;
 1214              		.loc 2 194 37
 1215 0727 488B8558 		movq	-168(%rbp), %rax	# <retval>, tmp189
 1215      FFFFFF
 1216 072e 8B9574FF 		movl	-140(%rbp), %edx	# j, tmp191
 1216      FFFF
 1217 0734 4863D2   		movslq	%edx, %rdx	# tmp191, tmp190
 1218 0737 4883C20C 		addq	$12, %rdx	#, tmp192
 1219 073b 8B44D008 		movl	8(%rax,%rdx,8), %eax	# output_62(D)->count[j_48].frequency, _38
 1220              	# Catalog.cpp:194:                     output.count[j].frequency++;
 1221              		.loc 2 194 46
 1222 073f 8D4801   		leal	1(%rax), %ecx	#, _39
 1223 0742 488B8558 		movq	-168(%rbp), %rax	# <retval>, tmp193
 1223      FFFFFF
 1224 0749 8B9574FF 		movl	-140(%rbp), %edx	# j, tmp195
 1224      FFFF
 1225 074f 4863D2   		movslq	%edx, %rdx	# tmp195, tmp194
 1226 0752 4883C20C 		addq	$12, %rdx	#, tmp196
 1227 0756 894CD008 		movl	%ecx, 8(%rax,%rdx,8)	# _39, output_62(D)->count[j_48].frequency
 1228              	# Catalog.cpp:196:                     j = 26;
 195:Catalog.cpp   ****                     //will end the for loop
 196:Catalog.cpp   ****                     j = 26;
 1229              		.loc 2 196 23
 1230 075a C78574FF 		movl	$26, -140(%rbp)	#, j
 1230      FFFF1A00 
 1230      0000
 1231              	.L39:
 1232              	# Catalog.cpp:190:             for(int j = 0; j < 26; j++) {
 190:Catalog.cpp   ****                 //Check for matching letter in array
 1233              		.loc 2 190 13 discriminator 2
 1234 0764 838574FF 		addl	$1, -140(%rbp)	#, j
 1234      FFFF01
 1235 076b EB90     		jmp	.L40	#
 1236              	.L38:
 1237              	.LBE14:
 1238              	# Catalog.cpp:202:             if(word_check(current)) {
 197:Catalog.cpp   ****                 }
 198:Catalog.cpp   ****             }
 199:Catalog.cpp   **** 
 200:Catalog.cpp   ****             //Check for whether there should be a word
 201:Catalog.cpp   ****             //First check for if current is a space, the initial case for a word
 202:Catalog.cpp   ****             if(word_check(current)) {
 1239              		.loc 2 202 26
 1240 076d 0FBE856B 		movsbl	-149(%rbp), %eax	# current, _40
 1240      FFFFFF
 1241 0774 89C7     		movl	%eax, %edi	# _40,
 1242 0776 E8000000 		call	_Z10word_checkc	#
 1242      00
 1243              	# Catalog.cpp:202:             if(word_check(current)) {
 1244              		.loc 2 202 13
 1245 077b 84C0     		testb	%al, %al	# retval.5_113
 1246 077d 742C     		je	.L41	#,
 1247              	# Catalog.cpp:204:                 if(!word_check(past)){
 203:Catalog.cpp   ****                 //Check to make sure the last two characters are not punctuation or a space
 204:Catalog.cpp   ****                 if(!word_check(past)){
 1248              		.loc 2 204 31
 1249 077f 0FBE856A 		movsbl	-150(%rbp), %eax	# past, _41
 1249      FFFFFF
 1250 0786 89C7     		movl	%eax, %edi	# _41,
 1251 0788 E8000000 		call	_Z10word_checkc	#
 1251      00
 1252              	# Catalog.cpp:204:                 if(!word_check(past)){
 1253              		.loc 2 204 20
 1254 078d 83F001   		xorl	$1, %eax	#, retval.6_115
 1255              	# Catalog.cpp:204:                 if(!word_check(past)){
 1256              		.loc 2 204 17
 1257 0790 84C0     		testb	%al, %al	# retval.6_115
 1258 0792 7417     		je	.L41	#,
 1259              	# Catalog.cpp:206:                     output.word_count++;
 205:Catalog.cpp   ****                     //increase word count
 206:Catalog.cpp   ****                     output.word_count++;
 1260              		.loc 2 206 28
 1261 0794 488B8558 		movq	-168(%rbp), %rax	# <retval>, tmp197
 1261      FFFFFF
 1262 079b 8B4060   		movl	96(%rax), %eax	# output_62(D)->word_count, _43
 1263              	# Catalog.cpp:206:                     output.word_count++;
 1264              		.loc 2 206 38
 1265 079e 8D5001   		leal	1(%rax), %edx	#, _44
 1266 07a1 488B8558 		movq	-168(%rbp), %rax	# <retval>, tmp198
 1266      FFFFFF
 1267 07a8 895060   		movl	%edx, 96(%rax)	# _44, output_62(D)->word_count
 1268              	.L41:
 1269              	# Catalog.cpp:209:             past = current;
 207:Catalog.cpp   ****                 }
 208:Catalog.cpp   ****             }
 209:Catalog.cpp   ****             past = current;
 1270              		.loc 2 209 18 discriminator 2
 1271 07ab 0FB6856B 		movzbl	-149(%rbp), %eax	# current, tmp199
 1271      FFFFFF
 1272 07b2 88856AFF 		movb	%al, -150(%rbp)	# tmp199, past
 1272      FFFF
 1273              	.LBE13:
 1274              	# Catalog.cpp:184:         for(int i = 0; i < temp.size(); i++) {
 184:Catalog.cpp   ****             
 1275              		.loc 2 184 9 discriminator 2
 1276 07b8 838570FF 		addl	$1, -144(%rbp)	#, i
 1276      FFFF01
 1277 07bf E9A9FEFF 		jmp	.L42	#
 1277      FF
 1278              	.L37:
 1279              	.LBE12:
 1280              	# Catalog.cpp:171:         string temp;
 171:Catalog.cpp   ****         getline(*ifile, temp);
 1281              		.loc 2 171 16
 1282 07c4 488D45C0 		leaq	-64(%rbp), %rax	#, tmp200
 1283 07c8 4889C7   		movq	%rax, %rdi	# tmp200,
 1284 07cb E8000000 		call	_ZNSt7__cxx1112basic_stringIcSt11char_traitsIcESaIcEED1Ev@PLT	#
 1284      00
 1285              	.LBE11:
 1286              	# Catalog.cpp:165:     while(!(ifile->eof())) {
 165:Catalog.cpp   ****         
 1287              		.loc 2 165 5
 1288 07d0 E9D9FDFF 		jmp	.L34	#
 1288      FF
 1289              	.L57:
 1290              	# Catalog.cpp:213:     return output;
 210:Catalog.cpp   ****         }
 211:Catalog.cpp   ****     }
 212:Catalog.cpp   **** 
 213:Catalog.cpp   ****     return output;
 1291              		.loc 2 213 12
 1292 07d5 90       		nop	
 1293              	# Catalog.cpp:155:     string temp;
 155:Catalog.cpp   ****     do{
 1294              		.loc 2 155 12
 1295 07d6 488D45A0 		leaq	-96(%rbp), %rax	#, tmp201
 1296 07da 4889C7   		movq	%rax, %rdi	# tmp201,
 1297 07dd E8000000 		call	_ZNSt7__cxx1112basic_stringIcSt11char_traitsIcESaIcEED1Ev@PLT	#
 1297      00
 1298              	# Catalog.cpp:213:     return output;
 1299              		.loc 2 213 12
 1300 07e2 90       		nop	
 1301              	# Catalog.cpp:214: }
 214:Catalog.cpp   **** }
 1302              		.loc 2 214 1
 1303 07e3 488B8558 		movq	-168(%rbp), %rax	# <retval>,
 1303      FFFFFF
 1304 07ea 488B4DE8 		movq	-24(%rbp), %rcx	# D.51554, tmp216
 1305 07ee 6448330C 		xorq	%fs:40, %rcx	# MEM[(<address-space-1> long unsigned int *)40B], tmp216
 1305      25280000 
 1305      00
 1306 07f7 0F849B00 		je	.L50	#,
 1306      0000
 1307 07fd E9910000 		jmp	.L56	#
 1307      00
 1308              	.L54:
 1309 0802 4889C3   		movq	%rax, %rbx	#, tmp204
 1310 0805 4889D0   		movq	%rdx, %rax	#, tmp202
 1311 0808 4883F801 		cmpq	$1, %rax	#, D.51551
 1312 080c 7402     		je	.L45	#,
 1313 080e EB47     		jmp	.L46	#
 1314              	.L45:
 1315              	.LBB16:
 1316              	.LBB15:
 1317              	# Catalog.cpp:178:         } catch(exception) {}
 178:Catalog.cpp   ****         //Iterate line counter
 1318              		.loc 2 178 17
 1319 0810 4889D8   		movq	%rbx, %rax	# tmp204, _28
 1320 0813 4889C7   		movq	%rax, %rdi	# _28,
 1321 0816 E8000000 		call	__cxa_get_exception_ptr@PLT	#
 1321      00
 1322 081b 4889C2   		movq	%rax, %rdx	#, _29
 1323 081e 488D8578 		leaq	-136(%rbp), %rax	#, tmp206
 1323      FFFFFF
 1324 0825 4889D6   		movq	%rdx, %rsi	# _29,
 1325 0828 4889C7   		movq	%rax, %rdi	# tmp206,
 1326 082b E8000000 		call	_ZNSt9exceptionC1ERKS_	#
 1326      00
 1327 0830 4889D8   		movq	%rbx, %rax	# tmp204, _30
 1328 0833 4889C7   		movq	%rax, %rdi	# _30,
 1329 0836 E8000000 		call	__cxa_begin_catch@PLT	#
 1329      00
 1330 083b 488D8578 		leaq	-136(%rbp), %rax	#, tmp207
 1330      FFFFFF
 1331 0842 4889C7   		movq	%rax, %rdi	# tmp207,
 1332 0845 E8000000 		call	_ZNSt9exceptionD1Ev@PLT	#
 1332      00
 1333 084a E8000000 		call	__cxa_end_catch@PLT	#
 1333      00
 1334 084f E9F2FDFF 		jmp	.L47	#
 1334      FF
 1335              	.L53:
 1336 0854 4889C3   		movq	%rax, %rbx	#, tmp203
 1337              	.L46:
 1338              	.LBE15:
 1339              	# Catalog.cpp:171:         string temp;
 171:Catalog.cpp   ****         getline(*ifile, temp);
 1340              		.loc 2 171 16
 1341 0857 488D45C0 		leaq	-64(%rbp), %rax	#, tmp208
 1342 085b 4889C7   		movq	%rax, %rdi	# tmp208,
 1343 085e E8000000 		call	_ZNSt7__cxx1112basic_stringIcSt11char_traitsIcESaIcEED1Ev@PLT	#
 1343      00
 1344 0863 EB03     		jmp	.L48	#
 1345              	.L52:
 1346 0865 4889C3   		movq	%rax, %rbx	#, tmp209
 1347              	.L48:
 1348              	.LBE16:
 1349              	# Catalog.cpp:155:     string temp;
 155:Catalog.cpp   ****     do{
 1350              		.loc 2 155 12
 1351 0868 488D45A0 		leaq	-96(%rbp), %rax	#, tmp211
 1352 086c 4889C7   		movq	%rax, %rdi	# tmp211,
 1353 086f E8000000 		call	_ZNSt7__cxx1112basic_stringIcSt11char_traitsIcESaIcEED1Ev@PLT	#
 1353      00
 1354 0874 EB03     		jmp	.L49	#
 1355              	.L51:
 1356 0876 4889C3   		movq	%rax, %rbx	#, tmp212
 1357              	.L49:
 1358 0879 488B8558 		movq	-168(%rbp), %rax	# <retval>, tmp214
 1358      FFFFFF
 1359 0880 4889C7   		movq	%rax, %rdi	# tmp214,
 1360 0883 E8000000 		call	_ZN7CatalogD1Ev	#
 1360      00
 1361 0888 4889D8   		movq	%rbx, %rax	# tmp212, D.51552
 1362 088b 4889C7   		movq	%rax, %rdi	# D.51552,
 1363              	.LEHB14:
 1364 088e E8000000 		call	_Unwind_Resume@PLT	#
 1364      00
 1365              	.LEHE14:
 1366              	.L56:
 1367              	# Catalog.cpp:214: }
 1368              		.loc 2 214 1
 1369 0893 E8000000 		call	__stack_chk_fail@PLT	#
 1369      00
 1370              	.L50:
 1371 0898 4881C4A0 		addq	$160, %rsp	#,
 1371      000000
 1372 089f 5B       		popq	%rbx	#
 1373 08a0 415C     		popq	%r12	#
 1374 08a2 5D       		popq	%rbp	#
 1375              		.cfi_def_cfa 7, 8
 1376 08a3 C3       		ret	
 1377              		.cfi_endproc
 1378              	.LFE2168:
 1379              		.section	.gcc_except_table
 1380              		.align 4
 1381              	.LLSDA2168:
 1382 0044 FF       		.byte	0xff
 1383 0045 9B       		.byte	0x9b
 1384 0046 31       		.uleb128 .LLSDATT2168-.LLSDATTD2168
 1385              	.LLSDATTD2168:
 1386 0047 01       		.byte	0x1
 1387 0048 24       		.uleb128 .LLSDACSE2168-.LLSDACSB2168
 1388              	.LLSDACSB2168:
 1389 0049 A401     		.uleb128 .LEHB9-.LFB2168
 1390 004b 8002     		.uleb128 .LEHE9-.LEHB9
 1391 004d D209     		.uleb128 .L51-.LFB2168
 1392 004f 00       		.uleb128 0
 1393 0050 C103     		.uleb128 .LEHB10-.LFB2168
 1394 0052 6F       		.uleb128 .LEHE10-.LEHB10
 1395 0053 C109     		.uleb128 .L52-.LFB2168
 1396 0055 00       		.uleb128 0
 1397 0056 DF04     		.uleb128 .LEHB11-.LFB2168
 1398 0058 14       		.uleb128 .LEHE11-.LEHB11
 1399 0059 B009     		.uleb128 .L53-.LFB2168
 1400 005b 00       		.uleb128 0
 1401 005c 9D05     		.uleb128 .LEHB12-.LFB2168
 1402 005e 05       		.uleb128 .LEHE12-.LEHB12
 1403 005f DE08     		.uleb128 .L54-.LFB2168
 1404 0061 03       		.uleb128 0x3
 1405 0062 A906     		.uleb128 .LEHB13-.LFB2168
 1406 0064 1D       		.uleb128 .LEHE13-.LEHB13
 1407 0065 B009     		.uleb128 .L53-.LFB2168
 1408 0067 00       		.uleb128 0
 1409 0068 EA09     		.uleb128 .LEHB14-.LFB2168
 1410 006a 05       		.uleb128 .LEHE14-.LEHB14
 1411 006b 00       		.uleb128 0
 1412 006c 00       		.uleb128 0
 1413              	.LLSDACSE2168:
 1414 006d 00       		.byte	0
 1415 006e 00       		.byte	0
 1416 006f 01       		.byte	0x1
 1417 0070 7D       		.byte	0x7d
 1418 0071 000000   		.align 4
 1419 0074 00000000 		.long	DW.ref._ZTISt9exception-.
 1420              	.LLSDATT2168:
 1421              		.text
 1423              		.globl	_Z10word_checkc
 1425              	_Z10word_checkc:
 1426              	.LFB2172:
 215:Catalog.cpp   **** 
 216:Catalog.cpp   **** bool word_check(char in) {
 1427              		.loc 2 216 26
 1428              		.cfi_startproc
 1429 08a4 55       		pushq	%rbp	#
 1430              		.cfi_def_cfa_offset 16
 1431              		.cfi_offset 6, -16
 1432 08a5 4889E5   		movq	%rsp, %rbp	#,
 1433              		.cfi_def_cfa_register 6
 1434 08a8 4883EC30 		subq	$48, %rsp	#,
 1435 08ac 89F8     		movl	%edi, %eax	# in, tmp90
 1436 08ae 8845DC   		movb	%al, -36(%rbp)	# tmp91, in
 1437              	# Catalog.cpp:216: bool word_check(char in) {
 1438              		.loc 2 216 26
 1439 08b1 64488B04 		movq	%fs:40, %rax	# MEM[(<address-space-1> long unsigned int *)40B], tmp96
 1439      25280000 
 1439      00
 1440 08ba 488945F8 		movq	%rax, -8(%rbp)	# tmp96, D.51559
 1441 08be 31C0     		xorl	%eax, %eax	# tmp96
 1442              	# Catalog.cpp:218:     int check_length = 7;
 217:Catalog.cpp   ****     // length of checker array
 218:Catalog.cpp   ****     int check_length = 7;
 1443              		.loc 2 218 9
 1444 08c0 C745EC07 		movl	$7, -20(%rbp)	#, check_length
 1444      000000
 1445              	# Catalog.cpp:220:     char checker[] = {' ', ',', '.', '!', ';', ':', '-'};
 219:Catalog.cpp   ****     //array of letters to check for
 220:Catalog.cpp   ****     char checker[] = {' ', ',', '.', '!', ';', ':', '-'};
 1446              		.loc 2 220 10
 1447 08c7 C645F120 		movb	$32, -15(%rbp)	#, checker
 1448 08cb C645F22C 		movb	$44, -14(%rbp)	#, checker
 1449 08cf C645F32E 		movb	$46, -13(%rbp)	#, checker
 1450 08d3 C645F421 		movb	$33, -12(%rbp)	#, checker
 1451 08d7 C645F53B 		movb	$59, -11(%rbp)	#, checker
 1452 08db C645F63A 		movb	$58, -10(%rbp)	#, checker
 1453 08df C645F72D 		movb	$45, -9(%rbp)	#, checker
 1454              	.LBB17:
 1455              	# Catalog.cpp:222:     for(int i = 0; i < check_length; i++) {
 221:Catalog.cpp   **** 
 222:Catalog.cpp   ****     for(int i = 0; i < check_length; i++) {
 1456              		.loc 2 222 13
 1457 08e3 C745E800 		movl	$0, -24(%rbp)	#, i
 1457      000000
 1458              	.L62:
 1459              	# Catalog.cpp:222:     for(int i = 0; i < check_length; i++) {
 1460              		.loc 2 222 22 discriminator 1
 1461 08ea 8B45E8   		movl	-24(%rbp), %eax	# i, tmp92
 1462 08ed 3B45EC   		cmpl	-20(%rbp), %eax	# check_length, tmp92
 1463 08f0 7D1C     		jge	.L59	#,
 1464              	# Catalog.cpp:224:         if(in == checker[i]) return true;
 223:Catalog.cpp   ****         //will return if any of these are actually a word ender
 224:Catalog.cpp   ****         if(in == checker[i]) return true;
 1465              		.loc 2 224 27
 1466 08f2 8B45E8   		movl	-24(%rbp), %eax	# i, tmp94
 1467 08f5 4898     		cltq
 1468 08f7 0FB64405 		movzbl	-15(%rbp,%rax), %eax	# checker, _1
 1468      F1
 1469              	# Catalog.cpp:224:         if(in == checker[i]) return true;
 1470              		.loc 2 224 9
 1471 08fc 3845DC   		cmpb	%al, -36(%rbp)	# _1, in
 1472 08ff 7507     		jne	.L60	#,
 1473              	# Catalog.cpp:224:         if(in == checker[i]) return true;
 1474              		.loc 2 224 37 discriminator 1
 1475 0901 B8010000 		movl	$1, %eax	#, _3
 1475      00
 1476 0906 EB0B     		jmp	.L63	#
 1477              	.L60:
 1478              	# Catalog.cpp:222:     for(int i = 0; i < check_length; i++) {
 222:Catalog.cpp   ****         //will return if any of these are actually a word ender
 1479              		.loc 2 222 5 discriminator 2
 1480 0908 8345E801 		addl	$1, -24(%rbp)	#, i
 1481 090c EBDC     		jmp	.L62	#
 1482              	.L59:
 1483              	.LBE17:
 1484              	# Catalog.cpp:227:     return false;
 225:Catalog.cpp   ****     }
 226:Catalog.cpp   ****     //otherwise return as false
 227:Catalog.cpp   ****     return false;
 1485              		.loc 2 227 12
 1486 090e B8000000 		movl	$0, %eax	#, _3
 1486      00
 1487              	.L63:
 1488              	# Catalog.cpp:228: }
 228:Catalog.cpp   **** }
 1489              		.loc 2 228 1 discriminator 1
 1490 0913 488B55F8 		movq	-8(%rbp), %rdx	# D.51559, tmp97
 1491 0917 64483314 		xorq	%fs:40, %rdx	# MEM[(<address-space-1> long unsigned int *)40B], tmp97
 1491      25280000 
 1491      00
 1492 0920 7405     		je	.L64	#,
 1493              	# Catalog.cpp:228: }
 1494              		.loc 2 228 1 is_stmt 0
 1495 0922 E8000000 		call	__stack_chk_fail@PLT	#
 1495      00
 1496              	.L64:
 1497 0927 C9       		leave	
 1498              		.cfi_def_cfa 7, 8
 1499 0928 C3       		ret	
 1500              		.cfi_endproc
 1501              	.LFE2172:
 1503              		.section	.rodata
 1504              		.align 8
 1505              	.LC4:
 1506 0060 0A0A2A2A 		.string	"\n\n***Would you like to enter in another file entry?(y/n): "
 1506      2A576F75 
 1506      6C642079 
 1506      6F75206C 
 1506      696B6520 
 1507              	.LC5:
 1508 009b 4E657720 		.string	"New Entry\n\n\n"
 1508      456E7472 
 1508      790A0A0A 
 1508      00
 1509              	.LC6:
 1510 00a8 4259450A 		.string	"BYE\n\n"
 1510      0A00
 1511              		.text
 1512              		.globl	_Z14continue_entryv
 1514              	_Z14continue_entryv:
 1515              	.LFB2173:
 229:Catalog.cpp   **** 
 230:Catalog.cpp   **** bool continue_entry() {
 1516              		.loc 2 230 23 is_stmt 1
 1517              		.cfi_startproc
 1518 0929 55       		pushq	%rbp	#
 1519              		.cfi_def_cfa_offset 16
 1520              		.cfi_offset 6, -16
 1521 092a 4889E5   		movq	%rsp, %rbp	#,
 1522              		.cfi_def_cfa_register 6
 1523 092d 4883EC10 		subq	$16, %rsp	#,
 1524              	# Catalog.cpp:230: bool continue_entry() {
 1525              		.loc 2 230 23
 1526 0931 64488B04 		movq	%fs:40, %rax	# MEM[(<address-space-1> long unsigned int *)40B], tmp92
 1526      25280000 
 1526      00
 1527 093a 488945F8 		movq	%rax, -8(%rbp)	# tmp92, D.51560
 1528 093e 31C0     		xorl	%eax, %eax	# tmp92
 1529              	# Catalog.cpp:232:     cout << "\n\n***Would you like to enter in another file entry?(y/n): ";
 231:Catalog.cpp   ****     //Prompt for another go at the program
 232:Catalog.cpp   ****     cout << "\n\n***Would you like to enter in another file entry?(y/n): ";
 1530              		.loc 2 232 13
 1531 0940 488D3500 		leaq	.LC4(%rip), %rsi	#,
 1531      000000
 1532 0947 488D3D00 		leaq	_ZSt4cout(%rip), %rdi	#,
 1532      000000
 1533 094e E8000000 		call	_ZStlsISt11char_traitsIcEERSt13basic_ostreamIcT_ES5_PKc@PLT	#
 1533      00
 1534              	# Catalog.cpp:235:     cin >> input;
 233:Catalog.cpp   ****     char input;
 234:Catalog.cpp   ****     //collect user input
 235:Catalog.cpp   ****     cin >> input;
 1535              		.loc 2 235 12
 1536 0953 488D45F7 		leaq	-9(%rbp), %rax	#, tmp90
 1537 0957 4889C6   		movq	%rax, %rsi	# tmp90,
 1538 095a 488D3D00 		leaq	_ZSt3cin(%rip), %rdi	#,
 1538      000000
 1539 0961 E8000000 		call	_ZStrsIcSt11char_traitsIcEERSt13basic_istreamIT_T0_ES6_RS3_@PLT	#
 1539      00
 1540              	# Catalog.cpp:238:     if(input == 'y') {
 236:Catalog.cpp   **** 
 237:Catalog.cpp   ****     //return and display result
 238:Catalog.cpp   ****     if(input == 'y') {
 1541              		.loc 2 238 14
 1542 0966 0FB645F7 		movzbl	-9(%rbp), %eax	# input, input.8_1
 1543              	# Catalog.cpp:238:     if(input == 'y') {
 1544              		.loc 2 238 5
 1545 096a 3C79     		cmpb	$121, %al	#, input.8_1
 1546 096c 751A     		jne	.L66	#,
 1547              	# Catalog.cpp:239:         cout << "New Entry\n\n\n";
 239:Catalog.cpp   ****         cout << "New Entry\n\n\n";
 1548              		.loc 2 239 17
 1549 096e 488D3500 		leaq	.LC5(%rip), %rsi	#,
 1549      000000
 1550 0975 488D3D00 		leaq	_ZSt4cout(%rip), %rdi	#,
 1550      000000
 1551 097c E8000000 		call	_ZStlsISt11char_traitsIcEERSt13basic_ostreamIcT_ES5_PKc@PLT	#
 1551      00
 1552              	# Catalog.cpp:240:         return true;
 240:Catalog.cpp   ****         return true;
 1553              		.loc 2 240 16
 1554 0981 B8010000 		movl	$1, %eax	#, _2
 1554      00
 1555 0986 EB18     		jmp	.L68	#
 1556              	.L66:
 1557              	# Catalog.cpp:243:         cout << "BYE\n\n";
 241:Catalog.cpp   ****     }
 242:Catalog.cpp   ****     else {
 243:Catalog.cpp   ****         cout << "BYE\n\n";
 1558              		.loc 2 243 17
 1559 0988 488D3500 		leaq	.LC6(%rip), %rsi	#,
 1559      000000
 1560 098f 488D3D00 		leaq	_ZSt4cout(%rip), %rdi	#,
 1560      000000
 1561 0996 E8000000 		call	_ZStlsISt11char_traitsIcEERSt13basic_ostreamIcT_ES5_PKc@PLT	#
 1561      00
 1562              	# Catalog.cpp:244:         return false;
 244:Catalog.cpp   ****         return false;
 1563              		.loc 2 244 16
 1564 099b B8000000 		movl	$0, %eax	#, _2
 1564      00
 1565              	.L68:
 1566              	# Catalog.cpp:246: }
 245:Catalog.cpp   ****     }
 246:Catalog.cpp   **** }
 1567              		.loc 2 246 1 discriminator 1
 1568 09a0 488B55F8 		movq	-8(%rbp), %rdx	# D.51560, tmp93
 1569 09a4 64483314 		xorq	%fs:40, %rdx	# MEM[(<address-space-1> long unsigned int *)40B], tmp93
 1569      25280000 
 1569      00
 1570 09ad 7405     		je	.L69	#,
 1571              	# Catalog.cpp:246: }
 1572              		.loc 2 246 1 is_stmt 0
 1573 09af E8000000 		call	__stack_chk_fail@PLT	#
 1573      00
 1574              	.L69:
 1575 09b4 C9       		leave	
 1576              		.cfi_def_cfa 7, 8
 1577 09b5 C3       		ret	
 1578              		.cfi_endproc
 1579              	.LFE2173:
 1581              		.globl	_Z12letter_countR7Catalog
 1583              	_Z12letter_countR7Catalog:
 1584              	.LFB2174:
 247:Catalog.cpp   **** 
 248:Catalog.cpp   **** int letter_count(Catalog &output) {
 1585              		.loc 2 248 35 is_stmt 1
 1586              		.cfi_startproc
 1587 09b6 55       		pushq	%rbp	#
 1588              		.cfi_def_cfa_offset 16
 1589              		.cfi_offset 6, -16
 1590 09b7 4889E5   		movq	%rsp, %rbp	#,
 1591              		.cfi_def_cfa_register 6
 1592 09ba 48897DC8 		movq	%rdi, -56(%rbp)	# output, output
 1593              	# Catalog.cpp:250:     int total = 0;
 249:Catalog.cpp   ****     //temp var
 250:Catalog.cpp   ****     int total = 0;
 1594              		.loc 2 250 9
 1595 09be C745DC00 		movl	$0, -36(%rbp)	#, total
 1595      000000
 1596              	.LBB18:
 1597              	# Catalog.cpp:252:     for(auto& i: output.count) {
 251:Catalog.cpp   ****     //iterate by using an iterator
 252:Catalog.cpp   ****     for(auto& i: output.count) {
 1598              		.loc 2 252 25
 1599 09c5 488B45C8 		movq	-56(%rbp), %rax	# output, tmp93
 1600 09c9 4883C064 		addq	$100, %rax	#, tmp92
 1601 09cd 488945E8 		movq	%rax, -24(%rbp)	# tmp92, __for_range
 1602 09d1 488B45E8 		movq	-24(%rbp), %rax	# __for_range, tmp94
 1603 09d5 488945E0 		movq	%rax, -32(%rbp)	# tmp94, __for_begin
 1604 09d9 488B45E8 		movq	-24(%rbp), %rax	# __for_range, tmp98
 1605 09dd 4805D000 		addq	$208, %rax	#, tmp97
 1605      0000
 1606 09e3 488945F0 		movq	%rax, -16(%rbp)	# tmp97, __for_end
 1607              	.L72:
 1608              	# Catalog.cpp:252:     for(auto& i: output.count) {
 1609              		.loc 2 252 25 is_stmt 0 discriminator 3
 1610 09e7 488B45E0 		movq	-32(%rbp), %rax	# __for_begin, tmp99
 1611 09eb 483B45F0 		cmpq	-16(%rbp), %rax	# __for_end, tmp99
 1612 09ef 7419     		je	.L71	#,
 1613              	# Catalog.cpp:252:     for(auto& i: output.count) {
 1614              		.loc 2 252 15 is_stmt 1 discriminator 2
 1615 09f1 488B45E0 		movq	-32(%rbp), %rax	# __for_begin, tmp100
 1616 09f5 488945F8 		movq	%rax, -8(%rbp)	# tmp100, i
 1617              	# Catalog.cpp:253:         total += i.frequency;
 253:Catalog.cpp   ****         total += i.frequency;
 1618              		.loc 2 253 20 discriminator 2
 1619 09f9 488B45F8 		movq	-8(%rbp), %rax	# i, tmp101
 1620 09fd 8B4004   		movl	4(%rax), %eax	# i_9->frequency, _1
 1621              	# Catalog.cpp:253:         total += i.frequency;
 1622              		.loc 2 253 15 discriminator 2
 1623 0a00 0145DC   		addl	%eax, -36(%rbp)	# _1, total
 1624              	# Catalog.cpp:252:     for(auto& i: output.count) {
 252:Catalog.cpp   ****         total += i.frequency;
 1625              		.loc 2 252 5 discriminator 2
 1626 0a03 488345E0 		addq	$8, -32(%rbp)	#, __for_begin
 1626      08
 1627 0a08 EBDD     		jmp	.L72	#
 1628              	.L71:
 1629              	.LBE18:
 1630              	# Catalog.cpp:255:     return total;
 254:Catalog.cpp   ****     }
 255:Catalog.cpp   ****     return total;
 1631              		.loc 2 255 12
 1632 0a0a 8B45DC   		movl	-36(%rbp), %eax	# total, _13
 1633              	# Catalog.cpp:256: }
 256:Catalog.cpp   **** }
 1634              		.loc 2 256 1
 1635 0a0d 5D       		popq	%rbp	#
 1636              		.cfi_def_cfa 7, 8
 1637 0a0e C3       		ret	
 1638              		.cfi_endproc
 1639              	.LFE2174:
 1641              		.section	.rodata
 1642 00ae 0000     		.align 8
 1643              	.LC7:
 1644 00b0 576F756C 		.string	"Would the user wish to see the percent use of letters?(y/n): "
 1644      64207468 
 1644      65207573 
 1644      65722077 
 1644      69736820 
 1645              	.LC8:
 1646 00ee 206C6574 		.string	" letter frequency: "
 1646      74657220 
 1646      66726571 
 1646      75656E63 
 1646      793A2000 
 1647              	.LC10:
 1648 0102 3A2000   		.string	": "
 1649              		.text
 1650              		.globl	_Z13letter_outputR7Catalog
 1652              	_Z13letter_outputR7Catalog:
 1653              	.LFB2175:
 257:Catalog.cpp   **** 
 258:Catalog.cpp   **** void letter_output(Catalog &output) {
 1654              		.loc 2 258 37
 1655              		.cfi_startproc
 1656 0a0f 55       		pushq	%rbp	#
 1657              		.cfi_def_cfa_offset 16
 1658              		.cfi_offset 6, -16
 1659 0a10 4889E5   		movq	%rsp, %rbp	#,
 1660              		.cfi_def_cfa_register 6
 1661 0a13 4883EC50 		subq	$80, %rsp	#,
 1662 0a17 48897DB8 		movq	%rdi, -72(%rbp)	# output, output
 1663              	# Catalog.cpp:258: void letter_output(Catalog &output) {
 1664              		.loc 2 258 37
 1665 0a1b 64488B04 		movq	%fs:40, %rax	# MEM[(<address-space-1> long unsigned int *)40B], tmp126
 1665      25280000 
 1665      00
 1666 0a24 488945F8 		movq	%rax, -8(%rbp)	# tmp126, D.51564
 1667 0a28 31C0     		xorl	%eax, %eax	# tmp126
 1668              	# Catalog.cpp:261:     cout  << "Would the user wish to see the percent use of letters?(y/n): ";
 259:Catalog.cpp   **** 
 260:Catalog.cpp   ****     //Get the input from user if they wish to see this
 261:Catalog.cpp   ****     cout  << "Would the user wish to see the percent use of letters?(y/n): ";
 1669              		.loc 2 261 14
 1670 0a2a 488D3500 		leaq	.LC7(%rip), %rsi	#,
 1670      000000
 1671 0a31 488D3D00 		leaq	_ZSt4cout(%rip), %rdi	#,
 1671      000000
 1672 0a38 E8000000 		call	_ZStlsISt11char_traitsIcEERSt13basic_ostreamIcT_ES5_PKc@PLT	#
 1672      00
 1673              	# Catalog.cpp:263:     cin >> decision;
 262:Catalog.cpp   ****     char decision;
 263:Catalog.cpp   ****     cin >> decision;
 1674              		.loc 2 263 12
 1675 0a3d 488D45CF 		leaq	-49(%rbp), %rax	#, tmp104
 1676 0a41 4889C6   		movq	%rax, %rsi	# tmp104,
 1677 0a44 488D3D00 		leaq	_ZSt3cin(%rip), %rdi	#,
 1677      000000
 1678 0a4b E8000000 		call	_ZStrsIcSt11char_traitsIcEERSt13basic_istreamIT_T0_ES6_RS3_@PLT	#
 1678      00
 1679              	# Catalog.cpp:264:     cin.ignore();
 264:Catalog.cpp   ****     cin.ignore();
 1680              		.loc 2 264 16
 1681 0a50 488D3D00 		leaq	_ZSt3cin(%rip), %rdi	#,
 1681      000000
 1682 0a57 E8000000 		call	_ZNSi6ignoreEv@PLT	#
 1682      00
 1683              	.LBB19:
 1684              	# Catalog.cpp:267:     if(decision == 'y') {
 265:Catalog.cpp   **** 
 266:Catalog.cpp   ****     //if yes
 267:Catalog.cpp   ****     if(decision == 'y') {
 1685              		.loc 2 267 17
 1686 0a5c 0FB645CF 		movzbl	-49(%rbp), %eax	# decision, decision.9_1
 1687              	# Catalog.cpp:267:     if(decision == 'y') {
 1688              		.loc 2 267 5
 1689 0a60 3C79     		cmpb	$121, %al	#, decision.9_1
 1690 0a62 0F853301 		jne	.L79	#,
 1690      0000
 1691              	.LBB20:
 1692              	# Catalog.cpp:269:         cout << endl << endl << output.title << " letter frequency: " << endl;
 268:Catalog.cpp   ****         //title
 269:Catalog.cpp   ****         cout << endl << endl << output.title << " letter frequency: " << endl;
 1693              		.loc 2 269 17
 1694 0a68 488B0500 		movq	_ZSt4endlIcSt11char_traitsIcEERSt13basic_ostreamIT_T0_ES6_@GOTPCREL(%rip), %rax	#, tmp105
 1694      000000
 1695 0a6f 4889C6   		movq	%rax, %rsi	# tmp105,
 1696 0a72 488D3D00 		leaq	_ZSt4cout(%rip), %rdi	#,
 1696      000000
 1697 0a79 E8000000 		call	_ZNSolsEPFRSoS_E@PLT	#
 1697      00
 1698 0a7e 4889C2   		movq	%rax, %rdx	#, _2
 1699              	# Catalog.cpp:269:         cout << endl << endl << output.title << " letter frequency: " << endl;
 1700              		.loc 2 269 25
 1701 0a81 488B0500 		movq	_ZSt4endlIcSt11char_traitsIcEERSt13basic_ostreamIT_T0_ES6_@GOTPCREL(%rip), %rax	#, tmp106
 1701      000000
 1702 0a88 4889C6   		movq	%rax, %rsi	# tmp106,
 1703 0a8b 4889D7   		movq	%rdx, %rdi	# _2,
 1704 0a8e E8000000 		call	_ZNSolsEPFRSoS_E@PLT	#
 1704      00
 1705 0a93 4889C2   		movq	%rax, %rdx	#, _3
 1706              	# Catalog.cpp:269:         cout << endl << endl << output.title << " letter frequency: " << endl;
 1707              		.loc 2 269 40
 1708 0a96 488B45B8 		movq	-72(%rbp), %rax	# output, _4
 1709              	# Catalog.cpp:269:         cout << endl << endl << output.title << " letter frequency: " << endl;
 1710              		.loc 2 269 49
 1711 0a9a 4889C6   		movq	%rax, %rsi	# _4,
 1712 0a9d 4889D7   		movq	%rdx, %rdi	# _3,
 1713 0aa0 E8000000 		call	_ZStlsIcSt11char_traitsIcESaIcEERSt13basic_ostreamIT_T0_ES7_RKNSt7__cxx1112basic_stringIS4_S5
 1713      00
 1714 0aa5 488D3500 		leaq	.LC8(%rip), %rsi	#,
 1714      000000
 1715 0aac 4889C7   		movq	%rax, %rdi	# _5,
 1716 0aaf E8000000 		call	_ZStlsISt11char_traitsIcEERSt13basic_ostreamIcT_ES5_PKc@PLT	#
 1716      00
 1717 0ab4 4889C2   		movq	%rax, %rdx	#, _6
 1718              	# Catalog.cpp:269:         cout << endl << endl << output.title << " letter frequency: " << endl;
 1719              		.loc 2 269 74
 1720 0ab7 488B0500 		movq	_ZSt4endlIcSt11char_traitsIcEERSt13basic_ostreamIT_T0_ES6_@GOTPCREL(%rip), %rax	#, tmp107
 1720      000000
 1721 0abe 4889C6   		movq	%rax, %rsi	# tmp107,
 1722 0ac1 4889D7   		movq	%rdx, %rdi	# _6,
 1723 0ac4 E8000000 		call	_ZNSolsEPFRSoS_E@PLT	#
 1723      00
 1724              	.LBB21:
 1725              	# Catalog.cpp:270:         for(auto& i: output.count) {
 270:Catalog.cpp   ****         for(auto& i: output.count) {
 1726              		.loc 2 270 29
 1727 0ac9 488B45B8 		movq	-72(%rbp), %rax	# output, tmp111
 1728 0acd 4883C064 		addq	$100, %rax	#, tmp110
 1729 0ad1 488945D8 		movq	%rax, -40(%rbp)	# tmp110, __for_range
 1730 0ad5 488B45D8 		movq	-40(%rbp), %rax	# __for_range, tmp112
 1731 0ad9 488945D0 		movq	%rax, -48(%rbp)	# tmp112, __for_begin
 1732 0add 488B45D8 		movq	-40(%rbp), %rax	# __for_range, tmp116
 1733 0ae1 4805D000 		addq	$208, %rax	#, tmp115
 1733      0000
 1734 0ae7 488945E0 		movq	%rax, -32(%rbp)	# tmp115, __for_end
 1735              	.L77:
 1736              	# Catalog.cpp:270:         for(auto& i: output.count) {
 1737              		.loc 2 270 29 is_stmt 0 discriminator 1
 1738 0aeb 488B45D0 		movq	-48(%rbp), %rax	# __for_begin, tmp117
 1739 0aef 483B45E0 		cmpq	-32(%rbp), %rax	# __for_end, tmp117
 1740 0af3 0F84A200 		je	.L79	#,
 1740      0000
 1741              	.LBB22:
 1742              	# Catalog.cpp:270:         for(auto& i: output.count) {
 1743              		.loc 2 270 19 is_stmt 1 discriminator 2
 1744 0af9 488B45D0 		movq	-48(%rbp), %rax	# __for_begin, tmp118
 1745 0afd 488945E8 		movq	%rax, -24(%rbp)	# tmp118, i
 1746              	# Catalog.cpp:272:             double percent = ((double)(i.frequency) / letter_count(output)) * 10
 271:Catalog.cpp   ****             //output each letter as a percent
 272:Catalog.cpp   ****             double percent = ((double)(i.frequency) / letter_count(output)) * 100;
 1747              		.loc 2 272 42 discriminator 2
 1748 0b01 488B45E8 		movq	-24(%rbp), %rax	# i, tmp119
 1749 0b05 8B4004   		movl	4(%rax), %eax	# i_39->frequency, _7
 1750              	# Catalog.cpp:272:             double percent = ((double)(i.frequency) / letter_count(output)) * 10
 1751              		.loc 2 272 31 discriminator 2
 1752 0b08 F20F2AD0 		cvtsi2sd	%eax, %xmm2	# _7, _8
 1753 0b0c F20F1155 		movsd	%xmm2, -80(%rbp)	# _8, %sfp
 1753      B0
 1754              	# Catalog.cpp:272:             double percent = ((double)(i.frequency) / letter_count(output)) * 10
 1755              		.loc 2 272 67 discriminator 2
 1756 0b11 488B45B8 		movq	-72(%rbp), %rax	# output, tmp120
 1757 0b15 4889C7   		movq	%rax, %rdi	# tmp120,
 1758 0b18 E8000000 		call	_Z12letter_countR7Catalog	#
 1758      00
 1759              	# Catalog.cpp:272:             double percent = ((double)(i.frequency) / letter_count(output)) * 10
 1760              		.loc 2 272 53 discriminator 2
 1761 0b1d F20F2AC0 		cvtsi2sd	%eax, %xmm0	# _9, _10
 1762 0b21 F20F104D 		movsd	-80(%rbp), %xmm1	# %sfp, _8
 1762      B0
 1763 0b26 F20F5EC8 		divsd	%xmm0, %xmm1	# _10, _8
 1764              	# Catalog.cpp:272:             double percent = ((double)(i.frequency) / letter_count(output)) * 10
 1765              		.loc 2 272 79 discriminator 2
 1766 0b2a F20F1005 		movsd	.LC9(%rip), %xmm0	#, tmp122
 1766      00000000 
 1767 0b32 F20F59C1 		mulsd	%xmm1, %xmm0	# _11, tmp121
 1768 0b36 F20F1145 		movsd	%xmm0, -16(%rbp)	# tmp121, percent
 1768      F0
 1769              	# Catalog.cpp:273:             cout << i.letter << ": " << percent << '%' << endl;            
 273:Catalog.cpp   ****             cout << i.letter << ": " << percent << '%' << endl;            
 1770              		.loc 2 273 23 discriminator 2
 1771 0b3b 488B45E8 		movq	-24(%rbp), %rax	# i, tmp123
 1772 0b3f 0FB600   		movzbl	(%rax), %eax	# i_39->letter, _12
 1773              	# Catalog.cpp:273:             cout << i.letter << ": " << percent << '%' << endl;            
 1774              		.loc 2 273 33 discriminator 2
 1775 0b42 0FBEC0   		movsbl	%al, %eax	# _12, _13
 1776 0b45 89C6     		movl	%eax, %esi	# _13,
 1777 0b47 488D3D00 		leaq	_ZSt4cout(%rip), %rdi	#,
 1777      000000
 1778 0b4e E8000000 		call	_ZStlsISt11char_traitsIcEERSt13basic_ostreamIcT_ES5_c@PLT	#
 1778      00
 1779 0b53 488D3500 		leaq	.LC10(%rip), %rsi	#,
 1779      000000
 1780 0b5a 4889C7   		movq	%rax, %rdi	# _14,
 1781 0b5d E8000000 		call	_ZStlsISt11char_traitsIcEERSt13basic_ostreamIcT_ES5_PKc@PLT	#
 1781      00
 1782              	# Catalog.cpp:273:             cout << i.letter << ": " << percent << '%' << endl;            
 1783              		.loc 2 273 41 discriminator 2
 1784 0b62 F20F1045 		movsd	-16(%rbp), %xmm0	# percent, tmp124
 1784      F0
 1785 0b67 4889C7   		movq	%rax, %rdi	# _15,
 1786 0b6a E8000000 		call	_ZNSolsEd@PLT	#
 1786      00
 1787              	# Catalog.cpp:273:             cout << i.letter << ": " << percent << '%' << endl;            
 1788              		.loc 2 273 52 discriminator 2
 1789 0b6f BE250000 		movl	$37, %esi	#,
 1789      00
 1790 0b74 4889C7   		movq	%rax, %rdi	# _16,
 1791 0b77 E8000000 		call	_ZStlsISt11char_traitsIcEERSt13basic_ostreamIcT_ES5_c@PLT	#
 1791      00
 1792 0b7c 4889C2   		movq	%rax, %rdx	#, _17
 1793              	# Catalog.cpp:273:             cout << i.letter << ": " << percent << '%' << endl;            
 1794              		.loc 2 273 59 discriminator 2
 1795 0b7f 488B0500 		movq	_ZSt4endlIcSt11char_traitsIcEERSt13basic_ostreamIT_T0_ES6_@GOTPCREL(%rip), %rax	#, tmp125
 1795      000000
 1796 0b86 4889C6   		movq	%rax, %rsi	# tmp125,
 1797 0b89 4889D7   		movq	%rdx, %rdi	# _17,
 1798 0b8c E8000000 		call	_ZNSolsEPFRSoS_E@PLT	#
 1798      00
 1799              	.LBE22:
 1800              	# Catalog.cpp:270:         for(auto& i: output.count) {
 270:Catalog.cpp   ****         for(auto& i: output.count) {
 1801              		.loc 2 270 9 discriminator 2
 1802 0b91 488345D0 		addq	$8, -48(%rbp)	#, __for_begin
 1802      08
 1803 0b96 E950FFFF 		jmp	.L77	#
 1803      FF
 1804              	.L79:
 1805              	.LBE21:
 1806              	.LBE20:
 1807              	.LBE19:
 1808              	# Catalog.cpp:277: }
 274:Catalog.cpp   ****         }
 275:Catalog.cpp   ****     }
 276:Catalog.cpp   **** 
 277:Catalog.cpp   **** }
 1809              		.loc 2 277 1
 1810 0b9b 90       		nop	
 1811 0b9c 488B45F8 		movq	-8(%rbp), %rax	# D.51564, tmp127
 1812 0ba0 64483304 		xorq	%fs:40, %rax	# MEM[(<address-space-1> long unsigned int *)40B], tmp127
 1812      25280000 
 1812      00
 1813 0ba9 7405     		je	.L78	#,
 1814 0bab E8000000 		call	__stack_chk_fail@PLT	#
 1814      00
 1815              	.L78:
 1816 0bb0 C9       		leave	
 1817              		.cfi_def_cfa 7, 8
 1818 0bb1 C3       		ret	
 1819              		.cfi_endproc
 1820              	.LFE2175:
 1822              		.section	.rodata
 1823              	.LC11:
 1824 0105 5469746C 		.string	"Title: "
 1824      653A2000 
 1825              	.LC12:
 1826 010d 46756C6C 		.string	"Full Name: "
 1826      204E616D 
 1826      653A2000 
 1827              	.LC13:
 1828 0119 46697273 		.string	"First Name: "
 1828      74204E61 
 1828      6D653A20 
 1828      00
 1829              	.LC14:
 1830 0126 4C617374 		.string	"Last Name: "
 1830      204E616D 
 1830      653A2000 
 1831              	.LC15:
 1832 0132 576F7264 		.string	"Word Count: "
 1832      20436F75 
 1832      6E743A20 
 1832      00
 1833              	.LC16:
 1834 013f 4C696E65 		.string	"Line Count: "
 1834      20436F75 
 1834      6E743A20 
 1834      00
 1835              		.text
 1836              		.globl	_Z12catalog_cardB5cxx11R7Catalog
 1838              	_Z12catalog_cardB5cxx11R7Catalog:
 1839              	.LFB2176:
 278:Catalog.cpp   **** 
 279:Catalog.cpp   **** 
 280:Catalog.cpp   **** string catalog_card(Catalog &output) {
 1840              		.loc 2 280 38
 1841              		.cfi_startproc
 1842              		.cfi_personality 0x9b,DW.ref.__gxx_personality_v0
 1843              		.cfi_lsda 0x1b,.LLSDA2176
 1844 0bb2 55       		pushq	%rbp	#
 1845              		.cfi_def_cfa_offset 16
 1846              		.cfi_offset 6, -16
 1847 0bb3 4889E5   		movq	%rsp, %rbp	#,
 1848              		.cfi_def_cfa_register 6
 1849 0bb6 53       		pushq	%rbx	#
 1850 0bb7 4881EC98 		subq	$408, %rsp	#,
 1850      010000
 1851              		.cfi_offset 3, -24
 1852 0bbe 4889BD68 		movq	%rdi, -408(%rbp)	# .result_ptr, .result_ptr
 1852      FEFFFF
 1853 0bc5 4889B560 		movq	%rsi, -416(%rbp)	# output, output
 1853      FEFFFF
 1854              	# Catalog.cpp:280: string catalog_card(Catalog &output) {
 1855              		.loc 2 280 38
 1856 0bcc 64488B04 		movq	%fs:40, %rax	# MEM[(<address-space-1> long unsigned int *)40B], tmp128
 1856      25280000 
 1856      00
 1857 0bd5 488945E8 		movq	%rax, -24(%rbp)	# tmp128, D.51570
 1858 0bd9 31C0     		xorl	%eax, %eax	# tmp128
 1859              	# Catalog.cpp:281:     ostringstream ostring;
 281:Catalog.cpp   ****     ostringstream ostring;
 1860              		.loc 2 281 19
 1861 0bdb 488D8570 		leaq	-400(%rbp), %rax	#, tmp109
 1861      FEFFFF
 1862 0be2 BE100000 		movl	$16, %esi	#,
 1862      00
 1863 0be7 4889C7   		movq	%rax, %rdi	# tmp109,
 1864              	.LEHB15:
 1865 0bea E8000000 		call	_ZNSt7__cxx1119basic_ostringstreamIcSt11char_traitsIcESaIcEEC1ESt13_Ios_Openmode@PLT	#
 1865      00
 1866              	.LEHE15:
 1867              	# Catalog.cpp:283:     ostring << "Title: " << output.title << endl;
 282:Catalog.cpp   **** 
 283:Catalog.cpp   ****     ostring << "Title: " << output.title << endl;
 1868              		.loc 2 283 36
 1869 0bef 488D8570 		leaq	-400(%rbp), %rax	#, tmp110
 1869      FEFFFF
 1870 0bf6 488D3500 		leaq	.LC11(%rip), %rsi	#,
 1870      000000
 1871 0bfd 4889C7   		movq	%rax, %rdi	# tmp110,
 1872              	.LEHB16:
 1873 0c00 E8000000 		call	_ZStlsISt11char_traitsIcEERSt13basic_ostreamIcT_ES5_PKc@PLT	#
 1873      00
 1874 0c05 4889C2   		movq	%rax, %rdx	#, _1
 1875 0c08 488B8560 		movq	-416(%rbp), %rax	# output, _2
 1875      FEFFFF
 1876 0c0f 4889C6   		movq	%rax, %rsi	# _2,
 1877 0c12 4889D7   		movq	%rdx, %rdi	# _1,
 1878 0c15 E8000000 		call	_ZStlsIcSt11char_traitsIcESaIcEERSt13basic_ostreamIT_T0_ES7_RKNSt7__cxx1112basic_stringIS4_S5
 1878      00
 1879              	# Catalog.cpp:283:     ostring << "Title: " << output.title << endl;
 1880              		.loc 2 283 36 is_stmt 0 discriminator 1
 1881 0c1a 4889C2   		movq	%rax, %rdx	#, _3
 1882              	# Catalog.cpp:283:     ostring << "Title: " << output.title << endl;
 1883              		.loc 2 283 45 is_stmt 1 discriminator 1
 1884 0c1d 488B0500 		movq	_ZSt4endlIcSt11char_traitsIcEERSt13basic_ostreamIT_T0_ES6_@GOTPCREL(%rip), %rax	#, tmp111
 1884      000000
 1885 0c24 4889C6   		movq	%rax, %rsi	# tmp111,
 1886 0c27 4889D7   		movq	%rdx, %rdi	# _3,
 1887 0c2a E8000000 		call	_ZNSolsEPFRSoS_E@PLT	#
 1887      00
 1888              	# Catalog.cpp:284:     ostring << "Full Name: " << output.first_name << ' ' << output.last_name << 
 284:Catalog.cpp   ****     ostring << "Full Name: " << output.first_name << ' ' << output.last_name << '\n';
 1889              		.loc 2 284 81
 1890 0c2f 488D8570 		leaq	-400(%rbp), %rax	#, tmp112
 1890      FEFFFF
 1891 0c36 488D3500 		leaq	.LC12(%rip), %rsi	#,
 1891      000000
 1892 0c3d 4889C7   		movq	%rax, %rdi	# tmp112,
 1893 0c40 E8000000 		call	_ZStlsISt11char_traitsIcEERSt13basic_ostreamIcT_ES5_PKc@PLT	#
 1893      00
 1894 0c45 4889C2   		movq	%rax, %rdx	#, _4
 1895              	# Catalog.cpp:284:     ostring << "Full Name: " << output.first_name << ' ' << output.last_name << 
 1896              		.loc 2 284 40
 1897 0c48 488B8560 		movq	-416(%rbp), %rax	# output, tmp113
 1897      FEFFFF
 1898 0c4f 4883C020 		addq	$32, %rax	#, _5
 1899              	# Catalog.cpp:284:     ostring << "Full Name: " << output.first_name << ' ' << output.last_name << 
 1900              		.loc 2 284 81
 1901 0c53 4889C6   		movq	%rax, %rsi	# _5,
 1902 0c56 4889D7   		movq	%rdx, %rdi	# _4,
 1903 0c59 E8000000 		call	_ZStlsIcSt11char_traitsIcESaIcEERSt13basic_ostreamIT_T0_ES7_RKNSt7__cxx1112basic_stringIS4_S5
 1903      00
 1904              	# Catalog.cpp:284:     ostring << "Full Name: " << output.first_name << ' ' << output.last_name << 
 1905              		.loc 2 284 81 is_stmt 0 discriminator 1
 1906 0c5e BE200000 		movl	$32, %esi	#,
 1906      00
 1907 0c63 4889C7   		movq	%rax, %rdi	# _6,
 1908 0c66 E8000000 		call	_ZStlsISt11char_traitsIcEERSt13basic_ostreamIcT_ES5_c@PLT	#
 1908      00
 1909              	# Catalog.cpp:284:     ostring << "Full Name: " << output.first_name << ' ' << output.last_name << 
 1910              		.loc 2 284 81 discriminator 2
 1911 0c6b 4889C2   		movq	%rax, %rdx	#, _7
 1912              	# Catalog.cpp:284:     ostring << "Full Name: " << output.first_name << ' ' << output.last_name << 
 1913              		.loc 2 284 68 is_stmt 1 discriminator 2
 1914 0c6e 488B8560 		movq	-416(%rbp), %rax	# output, tmp114
 1914      FEFFFF
 1915 0c75 4883C040 		addq	$64, %rax	#, _8
 1916              	# Catalog.cpp:284:     ostring << "Full Name: " << output.first_name << ' ' << output.last_name << 
 1917              		.loc 2 284 81 discriminator 2
 1918 0c79 4889C6   		movq	%rax, %rsi	# _8,
 1919 0c7c 4889D7   		movq	%rdx, %rdi	# _7,
 1920 0c7f E8000000 		call	_ZStlsIcSt11char_traitsIcESaIcEERSt13basic_ostreamIT_T0_ES7_RKNSt7__cxx1112basic_stringIS4_S5
 1920      00
 1921              	# Catalog.cpp:284:     ostring << "Full Name: " << output.first_name << ' ' << output.last_name << 
 1922              		.loc 2 284 81 is_stmt 0 discriminator 3
 1923 0c84 BE0A0000 		movl	$10, %esi	#,
 1923      00
 1924 0c89 4889C7   		movq	%rax, %rdi	# _9,
 1925 0c8c E8000000 		call	_ZStlsISt11char_traitsIcEERSt13basic_ostreamIcT_ES5_c@PLT	#
 1925      00
 1926              	# Catalog.cpp:285:     ostring << "First Name: " << output.first_name << '\n';
 285:Catalog.cpp   ****     ostring << "First Name: " << output.first_name << '\n';
 1927              		.loc 2 285 55 is_stmt 1
 1928 0c91 488D8570 		leaq	-400(%rbp), %rax	#, tmp115
 1928      FEFFFF
 1929 0c98 488D3500 		leaq	.LC13(%rip), %rsi	#,
 1929      000000
 1930 0c9f 4889C7   		movq	%rax, %rdi	# tmp115,
 1931 0ca2 E8000000 		call	_ZStlsISt11char_traitsIcEERSt13basic_ostreamIcT_ES5_PKc@PLT	#
 1931      00
 1932 0ca7 4889C2   		movq	%rax, %rdx	#, _10
 1933              	# Catalog.cpp:285:     ostring << "First Name: " << output.first_name << '\n';
 1934              		.loc 2 285 41
 1935 0caa 488B8560 		movq	-416(%rbp), %rax	# output, tmp116
 1935      FEFFFF
 1936 0cb1 4883C020 		addq	$32, %rax	#, _11
 1937              	# Catalog.cpp:285:     ostring << "First Name: " << output.first_name << '\n';
 1938              		.loc 2 285 55
 1939 0cb5 4889C6   		movq	%rax, %rsi	# _11,
 1940 0cb8 4889D7   		movq	%rdx, %rdi	# _10,
 1941 0cbb E8000000 		call	_ZStlsIcSt11char_traitsIcESaIcEERSt13basic_ostreamIT_T0_ES7_RKNSt7__cxx1112basic_stringIS4_S5
 1941      00
 1942              	# Catalog.cpp:285:     ostring << "First Name: " << output.first_name << '\n';
 1943              		.loc 2 285 55 is_stmt 0 discriminator 1
 1944 0cc0 BE0A0000 		movl	$10, %esi	#,
 1944      00
 1945 0cc5 4889C7   		movq	%rax, %rdi	# _12,
 1946 0cc8 E8000000 		call	_ZStlsISt11char_traitsIcEERSt13basic_ostreamIcT_ES5_c@PLT	#
 1946      00
 1947              	# Catalog.cpp:286:     ostring << "Last Name: " << output.last_name << '\n';
 286:Catalog.cpp   ****     ostring << "Last Name: " << output.last_name << '\n';
 1948              		.loc 2 286 53 is_stmt 1
 1949 0ccd 488D8570 		leaq	-400(%rbp), %rax	#, tmp117
 1949      FEFFFF
 1950 0cd4 488D3500 		leaq	.LC14(%rip), %rsi	#,
 1950      000000
 1951 0cdb 4889C7   		movq	%rax, %rdi	# tmp117,
 1952 0cde E8000000 		call	_ZStlsISt11char_traitsIcEERSt13basic_ostreamIcT_ES5_PKc@PLT	#
 1952      00
 1953 0ce3 4889C2   		movq	%rax, %rdx	#, _13
 1954              	# Catalog.cpp:286:     ostring << "Last Name: " << output.last_name << '\n';
 1955              		.loc 2 286 40
 1956 0ce6 488B8560 		movq	-416(%rbp), %rax	# output, tmp118
 1956      FEFFFF
 1957 0ced 4883C040 		addq	$64, %rax	#, _14
 1958              	# Catalog.cpp:286:     ostring << "Last Name: " << output.last_name << '\n';
 1959              		.loc 2 286 53
 1960 0cf1 4889C6   		movq	%rax, %rsi	# _14,
 1961 0cf4 4889D7   		movq	%rdx, %rdi	# _13,
 1962 0cf7 E8000000 		call	_ZStlsIcSt11char_traitsIcESaIcEERSt13basic_ostreamIT_T0_ES7_RKNSt7__cxx1112basic_stringIS4_S5
 1962      00
 1963              	# Catalog.cpp:286:     ostring << "Last Name: " << output.last_name << '\n';
 1964              		.loc 2 286 53 is_stmt 0 discriminator 1
 1965 0cfc BE0A0000 		movl	$10, %esi	#,
 1965      00
 1966 0d01 4889C7   		movq	%rax, %rdi	# _15,
 1967 0d04 E8000000 		call	_ZStlsISt11char_traitsIcEERSt13basic_ostreamIcT_ES5_c@PLT	#
 1967      00
 1968              	# Catalog.cpp:287:     ostring << "Word Count: " << output.word_count << '\n';
 287:Catalog.cpp   ****     ostring << "Word Count: " << output.word_count << '\n';
 1969              		.loc 2 287 16 is_stmt 1
 1970 0d09 488D8570 		leaq	-400(%rbp), %rax	#, tmp119
 1970      FEFFFF
 1971 0d10 488D3500 		leaq	.LC15(%rip), %rsi	#,
 1971      000000
 1972 0d17 4889C7   		movq	%rax, %rdi	# tmp119,
 1973 0d1a E8000000 		call	_ZStlsISt11char_traitsIcEERSt13basic_ostreamIcT_ES5_PKc@PLT	#
 1973      00
 1974 0d1f 4889C2   		movq	%rax, %rdx	#, _16
 1975              	# Catalog.cpp:287:     ostring << "Word Count: " << output.word_count << '\n';
 1976              		.loc 2 287 55
 1977 0d22 488B8560 		movq	-416(%rbp), %rax	# output, tmp120
 1977      FEFFFF
 1978 0d29 8B4060   		movl	96(%rax), %eax	# output_28(D)->word_count, _17
 1979 0d2c 89C6     		movl	%eax, %esi	# _17,
 1980 0d2e 4889D7   		movq	%rdx, %rdi	# _16,
 1981 0d31 E8000000 		call	_ZNSolsEi@PLT	#
 1981      00
 1982              	# Catalog.cpp:287:     ostring << "Word Count: " << output.word_count << '\n';
 1983              		.loc 2 287 55 is_stmt 0 discriminator 1
 1984 0d36 BE0A0000 		movl	$10, %esi	#,
 1984      00
 1985 0d3b 4889C7   		movq	%rax, %rdi	# _18,
 1986 0d3e E8000000 		call	_ZStlsISt11char_traitsIcEERSt13basic_ostreamIcT_ES5_c@PLT	#
 1986      00
 1987              	# Catalog.cpp:288:     ostring << "Line Count: " << output.line_count << '\n';
 288:Catalog.cpp   ****     ostring << "Line Count: " << output.line_count << '\n';
 1988              		.loc 2 288 16 is_stmt 1
 1989 0d43 488D8570 		leaq	-400(%rbp), %rax	#, tmp121
 1989      FEFFFF
 1990 0d4a 488D3500 		leaq	.LC16(%rip), %rsi	#,
 1990      000000
 1991 0d51 4889C7   		movq	%rax, %rdi	# tmp121,
 1992 0d54 E8000000 		call	_ZStlsISt11char_traitsIcEERSt13basic_ostreamIcT_ES5_PKc@PLT	#
 1992      00
 1993 0d59 4889C2   		movq	%rax, %rdx	#, _19
 1994              	# Catalog.cpp:288:     ostring << "Line Count: " << output.line_count << '\n';
 1995              		.loc 2 288 55
 1996 0d5c 488B8560 		movq	-416(%rbp), %rax	# output, tmp122
 1996      FEFFFF
 1997 0d63 8B803401 		movl	308(%rax), %eax	# output_28(D)->line_count, _20
 1997      0000
 1998 0d69 89C6     		movl	%eax, %esi	# _20,
 1999 0d6b 4889D7   		movq	%rdx, %rdi	# _19,
 2000 0d6e E8000000 		call	_ZNSolsEi@PLT	#
 2000      00
 2001              	# Catalog.cpp:288:     ostring << "Line Count: " << output.line_count << '\n';
 2002              		.loc 2 288 55 is_stmt 0 discriminator 1
 2003 0d73 BE0A0000 		movl	$10, %esi	#,
 2003      00
 2004 0d78 4889C7   		movq	%rax, %rdi	# _21,
 2005 0d7b E8000000 		call	_ZStlsISt11char_traitsIcEERSt13basic_ostreamIcT_ES5_c@PLT	#
 2005      00
 2006              	# Catalog.cpp:290:     return ostring.str();
 289:Catalog.cpp   **** 
 290:Catalog.cpp   ****     return ostring.str();
 2007              		.loc 2 290 24 is_stmt 1
 2008 0d80 488B8568 		movq	-408(%rbp), %rax	# <retval>, tmp123
 2008      FEFFFF
 2009 0d87 488D9570 		leaq	-400(%rbp), %rdx	#, tmp124
 2009      FEFFFF
 2010 0d8e 4889D6   		movq	%rdx, %rsi	# tmp124,
 2011 0d91 4889C7   		movq	%rax, %rdi	# tmp123,
 2012 0d94 E8000000 		call	_ZNKSt7__cxx1119basic_ostringstreamIcSt11char_traitsIcESaIcEE3strEv@PLT	#
 2012      00
 2013              	.LEHE16:
 2014 0d99 90       		nop	
 2015              	# Catalog.cpp:281:     ostringstream ostring;
 281:Catalog.cpp   **** 
 2016              		.loc 2 281 19
 2017 0d9a 488D8570 		leaq	-400(%rbp), %rax	#, tmp125
 2017      FEFFFF
 2018 0da1 4889C7   		movq	%rax, %rdi	# tmp125,
 2019 0da4 E8000000 		call	_ZNSt7__cxx1119basic_ostringstreamIcSt11char_traitsIcESaIcEED1Ev@PLT	#
 2019      00
 2020              	# Catalog.cpp:290:     return ostring.str();
 2021              		.loc 2 290 24
 2022 0da9 90       		nop	
 2023              	# Catalog.cpp:291: }
 291:Catalog.cpp   **** }
 2024              		.loc 2 291 1
 2025 0daa 488B8568 		movq	-408(%rbp), %rax	# <retval>,
 2025      FEFFFF
 2026 0db1 488B4DE8 		movq	-24(%rbp), %rcx	# D.51570, tmp129
 2027 0db5 6448330C 		xorq	%fs:40, %rcx	# MEM[(<address-space-1> long unsigned int *)40B], tmp129
 2027      25280000 
 2027      00
 2028 0dbe 7424     		je	.L83	#,
 2029 0dc0 EB1D     		jmp	.L85	#
 2030              	.L84:
 2031 0dc2 4889C3   		movq	%rax, %rbx	#, tmp127
 2032              	# Catalog.cpp:281:     ostringstream ostring;
 281:Catalog.cpp   **** 
 2033              		.loc 2 281 19
 2034 0dc5 488D8570 		leaq	-400(%rbp), %rax	#, tmp126
 2034      FEFFFF
 2035 0dcc 4889C7   		movq	%rax, %rdi	# tmp126,
 2036 0dcf E8000000 		call	_ZNSt7__cxx1119basic_ostringstreamIcSt11char_traitsIcESaIcEED1Ev@PLT	#
 2036      00
 2037 0dd4 4889D8   		movq	%rbx, %rax	# tmp127, D.51569
 2038 0dd7 4889C7   		movq	%rax, %rdi	# D.51569,
 2039              	.LEHB17:
 2040 0dda E8000000 		call	_Unwind_Resume@PLT	#
 2040      00
 2041              	.LEHE17:
 2042              	.L85:
 2043              	# Catalog.cpp:291: }
 2044              		.loc 2 291 1
 2045 0ddf E8000000 		call	__stack_chk_fail@PLT	#
 2045      00
 2046              	.L83:
 2047 0de4 4881C498 		addq	$408, %rsp	#,
 2047      010000
 2048 0deb 5B       		popq	%rbx	#
 2049 0dec 5D       		popq	%rbp	#
 2050              		.cfi_def_cfa 7, 8
 2051 0ded C3       		ret	
 2052              		.cfi_endproc
 2053              	.LFE2176:
 2054              		.section	.gcc_except_table
 2055              	.LLSDA2176:
 2056 0078 FF       		.byte	0xff
 2057 0079 FF       		.byte	0xff
 2058 007a 01       		.byte	0x1
 2059 007b 0F       		.uleb128 .LLSDACSE2176-.LLSDACSB2176
 2060              	.LLSDACSB2176:
 2061 007c 38       		.uleb128 .LEHB15-.LFB2176
 2062 007d 05       		.uleb128 .LEHE15-.LEHB15
 2063 007e 00       		.uleb128 0
 2064 007f 00       		.uleb128 0
 2065 0080 4E       		.uleb128 .LEHB16-.LFB2176
 2066 0081 9903     		.uleb128 .LEHE16-.LEHB16
 2067 0083 9004     		.uleb128 .L84-.LFB2176
 2068 0085 00       		.uleb128 0
 2069 0086 A804     		.uleb128 .LEHB17-.LFB2176
 2070 0088 05       		.uleb128 .LEHE17-.LEHB17
 2071 0089 00       		.uleb128 0
 2072 008a 00       		.uleb128 0
 2073              	.LLSDACSE2176:
 2074              		.text
 2076              		.section	.rodata
 2077              	.LC17:
 2078 014c 43617264 		.string	"CardCatalog.txt"
 2078      43617461 
 2078      6C6F672E 
 2078      74787400 
 2079              		.text
 2080              		.globl	_Z14output_catalogRNSt7__cxx1112basic_stringIcSt11char_traitsIcESaIcEEE
 2082              	_Z14output_catalogRNSt7__cxx1112basic_stringIcSt11char_traitsIcESaIcEEE:
 2083              	.LFB2177:
 292:Catalog.cpp   **** 
 293:Catalog.cpp   **** void output_catalog(string &out) {
 2084              		.loc 2 293 34
 2085              		.cfi_startproc
 2086              		.cfi_personality 0x9b,DW.ref.__gxx_personality_v0
 2087              		.cfi_lsda 0x1b,.LLSDA2177
 2088 0dee 55       		pushq	%rbp	#
 2089              		.cfi_def_cfa_offset 16
 2090              		.cfi_offset 6, -16
 2091 0def 4889E5   		movq	%rsp, %rbp	#,
 2092              		.cfi_def_cfa_register 6
 2093 0df2 53       		pushq	%rbx	#
 2094 0df3 4881EC38 		subq	$568, %rsp	#,
 2094      020000
 2095              		.cfi_offset 3, -24
 2096 0dfa 4889BDC8 		movq	%rdi, -568(%rbp)	# out, out
 2096      FDFFFF
 2097              	# Catalog.cpp:293: void output_catalog(string &out) {
 2098              		.loc 2 293 34
 2099 0e01 64488B04 		movq	%fs:40, %rax	# MEM[(<address-space-1> long unsigned int *)40B], tmp99
 2099      25280000 
 2099      00
 2100 0e0a 488945E8 		movq	%rax, -24(%rbp)	# tmp99, D.51580
 2101 0e0e 31C0     		xorl	%eax, %eax	# tmp99
 2102              	# Catalog.cpp:296:     fstream ofile("CardCatalog.txt", ios::out | ios::app);
 294:Catalog.cpp   **** 
 295:Catalog.cpp   ****     //Creates the fstream object to append the file
 296:Catalog.cpp   ****     fstream ofile("CardCatalog.txt", ios::out | ios::app);
 2103              		.loc 2 296 57
 2104 0e10 BE010000 		movl	$1, %esi	#,
 2104      00
 2105 0e15 BF100000 		movl	$16, %edi	#,
 2105      00
 2106 0e1a E8000000 		call	_ZStorSt13_Ios_OpenmodeS_	#
 2106      00
 2107 0e1f 89C2     		movl	%eax, %edx	#, _1
 2108 0e21 488D85D0 		leaq	-560(%rbp), %rax	#, tmp90
 2108      FDFFFF
 2109 0e28 488D3500 		leaq	.LC17(%rip), %rsi	#,
 2109      000000
 2110 0e2f 4889C7   		movq	%rax, %rdi	# tmp90,
 2111              	.LEHB18:
 2112 0e32 E8000000 		call	_ZNSt13basic_fstreamIcSt11char_traitsIcEEC1EPKcSt13_Ios_Openmode@PLT	#
 2112      00
 2113              	.LEHE18:
 2114              	# Catalog.cpp:299:     ofile << out << endl;
 297:Catalog.cpp   ****     
 298:Catalog.cpp   ****     //output the string
 299:Catalog.cpp   ****     ofile << out << endl;
 2115              		.loc 2 299 14
 2116 0e37 488B85C8 		movq	-568(%rbp), %rax	# out, tmp91
 2116      FDFFFF
 2117 0e3e 488D95D0 		leaq	-560(%rbp), %rdx	#, tmp92
 2117      FDFFFF
 2118 0e45 4883C210 		addq	$16, %rdx	#, tmp93
 2119 0e49 4889C6   		movq	%rax, %rsi	# tmp91,
 2120 0e4c 4889D7   		movq	%rdx, %rdi	# tmp93,
 2121              	.LEHB19:
 2122 0e4f E8000000 		call	_ZStlsIcSt11char_traitsIcESaIcEERSt13basic_ostreamIT_T0_ES7_RKNSt7__cxx1112basic_stringIS4_S5
 2122      00
 2123 0e54 4889C2   		movq	%rax, %rdx	#, _2
 2124              	# Catalog.cpp:299:     ofile << out << endl;
 2125              		.loc 2 299 21
 2126 0e57 488B0500 		movq	_ZSt4endlIcSt11char_traitsIcEERSt13basic_ostreamIT_T0_ES6_@GOTPCREL(%rip), %rax	#, tmp94
 2126      000000
 2127 0e5e 4889C6   		movq	%rax, %rsi	# tmp94,
 2128 0e61 4889D7   		movq	%rdx, %rdi	# _2,
 2129 0e64 E8000000 		call	_ZNSolsEPFRSoS_E@PLT	#
 2129      00
 2130              	# Catalog.cpp:302:     ofile.close();
 300:Catalog.cpp   **** 
 301:Catalog.cpp   ****     //close file
 302:Catalog.cpp   ****     ofile.close();
 2131              		.loc 2 302 16
 2132 0e69 488D85D0 		leaq	-560(%rbp), %rax	#, tmp95
 2132      FDFFFF
 2133 0e70 4889C7   		movq	%rax, %rdi	# tmp95,
 2134 0e73 E8000000 		call	_ZNSt13basic_fstreamIcSt11char_traitsIcEE5closeEv@PLT	#
 2134      00
 2135              	.LEHE19:
 2136              	# Catalog.cpp:296:     fstream ofile("CardCatalog.txt", ios::out | ios::app);
 296:Catalog.cpp   ****     
 2137              		.loc 2 296 57
 2138 0e78 488D85D0 		leaq	-560(%rbp), %rax	#, tmp96
 2138      FDFFFF
 2139 0e7f 4889C7   		movq	%rax, %rdi	# tmp96,
 2140 0e82 E8000000 		call	_ZNSt13basic_fstreamIcSt11char_traitsIcEED1Ev@PLT	#
 2140      00
 2141              	# Catalog.cpp:304: }
 303:Catalog.cpp   **** 
 304:Catalog.cpp   **** }...
 2142              		.loc 2 304 1
 2143 0e87 90       		nop	
 2144 0e88 488B45E8 		movq	-24(%rbp), %rax	# D.51580, tmp100
 2145 0e8c 64483304 		xorq	%fs:40, %rax	# MEM[(<address-space-1> long unsigned int *)40B], tmp100
 2145      25280000 
 2145      00
 2146 0e95 7424     		je	.L88	#,
 2147 0e97 EB1D     		jmp	.L90	#
 2148              	.L89:
 2149 0e99 4889C3   		movq	%rax, %rbx	#, tmp98
 2150              	# Catalog.cpp:296:     fstream ofile("CardCatalog.txt", ios::out | ios::app);
 296:Catalog.cpp   ****     
 2151              		.loc 2 296 57
 2152 0e9c 488D85D0 		leaq	-560(%rbp), %rax	#, tmp97
 2152      FDFFFF
 2153 0ea3 4889C7   		movq	%rax, %rdi	# tmp97,
 2154 0ea6 E8000000 		call	_ZNSt13basic_fstreamIcSt11char_traitsIcEED1Ev@PLT	#
 2154      00
 2155 0eab 4889D8   		movq	%rbx, %rax	# tmp98, D.51579
 2156 0eae 4889C7   		movq	%rax, %rdi	# D.51579,
 2157              	.LEHB20:
 2158 0eb1 E8000000 		call	_Unwind_Resume@PLT	#
 2158      00
 2159              	.LEHE20:
 2160              	.L90:
 2161              	# Catalog.cpp:304: }
 2162              		.loc 2 304 1
 2163 0eb6 E8000000 		call	__stack_chk_fail@PLT	#
 2163      00
 2164              	.L88:
 2165 0ebb 4881C438 		addq	$568, %rsp	#,
 2165      020000
 2166 0ec2 5B       		popq	%rbx	#
 2167 0ec3 5D       		popq	%rbp	#
 2168              		.cfi_def_cfa 7, 8
 2169 0ec4 C3       		ret	
 2170              		.cfi_endproc
 2171              	.LFE2177:
 2172              		.section	.gcc_except_table
 2173              	.LLSDA2177:
 2174 008b FF       		.byte	0xff
 2175 008c FF       		.byte	0xff
 2176 008d 01       		.byte	0x1
 2177 008e 0E       		.uleb128 .LLSDACSE2177-.LLSDACSB2177
 2178              	.LLSDACSB2177:
 2179 008f 44       		.uleb128 .LEHB18-.LFB2177
 2180 0090 05       		.uleb128 .LEHE18-.LEHB18
 2181 0091 00       		.uleb128 0
 2182 0092 00       		.uleb128 0
 2183 0093 61       		.uleb128 .LEHB19-.LFB2177
 2184 0094 29       		.uleb128 .LEHE19-.LEHB19
 2185 0095 AB01     		.uleb128 .L89-.LFB2177
 2186 0097 00       		.uleb128 0
 2187 0098 C301     		.uleb128 .LEHB20-.LFB2177
 2188 009a 05       		.uleb128 .LEHE20-.LEHB20
 2189 009b 00       		.uleb128 0
 2190 009c 00       		.uleb128 0
 2191              	.LLSDACSE2177:
 2192              		.text
 2194              		.section	.text._ZSteqIcSt11char_traitsIcESaIcEEbRKNSt7__cxx1112basic_stringIT_T0_T1_EEPKS5_,"axG",
 2195              		.weak	_ZSteqIcSt11char_traitsIcESaIcEEbRKNSt7__cxx1112basic_stringIT_T0_T1_EEPKS5_
 2197              	_ZSteqIcSt11char_traitsIcESaIcEEbRKNSt7__cxx1112basic_stringIT_T0_T1_EEPKS5_:
 2198              	.LFB2460:
 2199              		.file 4 "/usr/include/c++/8/bits/basic_string.h"
   1:/usr/include/c++/8/bits/basic_string.h **** // Components for manipulating sequences of characters -*- C++ -*-
   2:/usr/include/c++/8/bits/basic_string.h **** 
   3:/usr/include/c++/8/bits/basic_string.h **** // Copyright (C) 1997-2018 Free Software Foundation, Inc.
   4:/usr/include/c++/8/bits/basic_string.h **** //
   5:/usr/include/c++/8/bits/basic_string.h **** // This file is part of the GNU ISO C++ Library.  This library is free
   6:/usr/include/c++/8/bits/basic_string.h **** // software; you can redistribute it and/or modify it under the
   7:/usr/include/c++/8/bits/basic_string.h **** // terms of the GNU General Public License as published by the
   8:/usr/include/c++/8/bits/basic_string.h **** // Free Software Foundation; either version 3, or (at your option)
   9:/usr/include/c++/8/bits/basic_string.h **** // any later version.
  10:/usr/include/c++/8/bits/basic_string.h **** 
  11:/usr/include/c++/8/bits/basic_string.h **** // This library is distributed in the hope that it will be useful,
  12:/usr/include/c++/8/bits/basic_string.h **** // but WITHOUT ANY WARRANTY; without even the implied warranty of
  13:/usr/include/c++/8/bits/basic_string.h **** // MERCHANTABILITY or FITNESS FOR A PARTICULAR PURPOSE.  See the
  14:/usr/include/c++/8/bits/basic_string.h **** // GNU General Public License for more details.
  15:/usr/include/c++/8/bits/basic_string.h **** 
  16:/usr/include/c++/8/bits/basic_string.h **** // Under Section 7 of GPL version 3, you are granted additional
  17:/usr/include/c++/8/bits/basic_string.h **** // permissions described in the GCC Runtime Library Exception, version
  18:/usr/include/c++/8/bits/basic_string.h **** // 3.1, as published by the Free Software Foundation.
  19:/usr/include/c++/8/bits/basic_string.h **** 
  20:/usr/include/c++/8/bits/basic_string.h **** // You should have received a copy of the GNU General Public License and
  21:/usr/include/c++/8/bits/basic_string.h **** // a copy of the GCC Runtime Library Exception along with this program;
  22:/usr/include/c++/8/bits/basic_string.h **** // see the files COPYING3 and COPYING.RUNTIME respectively.  If not, see
  23:/usr/include/c++/8/bits/basic_string.h **** // <http://www.gnu.org/licenses/>.
  24:/usr/include/c++/8/bits/basic_string.h **** 
  25:/usr/include/c++/8/bits/basic_string.h **** /** @file bits/basic_string.h
  26:/usr/include/c++/8/bits/basic_string.h ****  *  This is an internal header file, included by other library headers.
  27:/usr/include/c++/8/bits/basic_string.h ****  *  Do not attempt to use it directly. @headername{string}
  28:/usr/include/c++/8/bits/basic_string.h ****  */
  29:/usr/include/c++/8/bits/basic_string.h **** 
  30:/usr/include/c++/8/bits/basic_string.h **** //
  31:/usr/include/c++/8/bits/basic_string.h **** // ISO C++ 14882: 21 Strings library
  32:/usr/include/c++/8/bits/basic_string.h **** //
  33:/usr/include/c++/8/bits/basic_string.h **** 
  34:/usr/include/c++/8/bits/basic_string.h **** #ifndef _BASIC_STRING_H
  35:/usr/include/c++/8/bits/basic_string.h **** #define _BASIC_STRING_H 1
  36:/usr/include/c++/8/bits/basic_string.h **** 
  37:/usr/include/c++/8/bits/basic_string.h **** #pragma GCC system_header
  38:/usr/include/c++/8/bits/basic_string.h **** 
  39:/usr/include/c++/8/bits/basic_string.h **** #include <ext/atomicity.h>
  40:/usr/include/c++/8/bits/basic_string.h **** #include <ext/alloc_traits.h>
  41:/usr/include/c++/8/bits/basic_string.h **** #include <debug/debug.h>
  42:/usr/include/c++/8/bits/basic_string.h **** 
  43:/usr/include/c++/8/bits/basic_string.h **** #if __cplusplus >= 201103L
  44:/usr/include/c++/8/bits/basic_string.h **** #include <initializer_list>
  45:/usr/include/c++/8/bits/basic_string.h **** #endif
  46:/usr/include/c++/8/bits/basic_string.h **** 
  47:/usr/include/c++/8/bits/basic_string.h **** #if __cplusplus > 201402L
  48:/usr/include/c++/8/bits/basic_string.h **** # include <string_view>
  49:/usr/include/c++/8/bits/basic_string.h **** #endif
  50:/usr/include/c++/8/bits/basic_string.h **** 
  51:/usr/include/c++/8/bits/basic_string.h **** 
  52:/usr/include/c++/8/bits/basic_string.h **** namespace std _GLIBCXX_VISIBILITY(default)
  53:/usr/include/c++/8/bits/basic_string.h **** {
  54:/usr/include/c++/8/bits/basic_string.h **** _GLIBCXX_BEGIN_NAMESPACE_VERSION
  55:/usr/include/c++/8/bits/basic_string.h **** 
  56:/usr/include/c++/8/bits/basic_string.h **** #if _GLIBCXX_USE_CXX11_ABI
  57:/usr/include/c++/8/bits/basic_string.h **** _GLIBCXX_BEGIN_NAMESPACE_CXX11
  58:/usr/include/c++/8/bits/basic_string.h ****   /**
  59:/usr/include/c++/8/bits/basic_string.h ****    *  @class basic_string basic_string.h <string>
  60:/usr/include/c++/8/bits/basic_string.h ****    *  @brief  Managing sequences of characters and character-like objects.
  61:/usr/include/c++/8/bits/basic_string.h ****    *
  62:/usr/include/c++/8/bits/basic_string.h ****    *  @ingroup strings
  63:/usr/include/c++/8/bits/basic_string.h ****    *  @ingroup sequences
  64:/usr/include/c++/8/bits/basic_string.h ****    *
  65:/usr/include/c++/8/bits/basic_string.h ****    *  @tparam _CharT  Type of character
  66:/usr/include/c++/8/bits/basic_string.h ****    *  @tparam _Traits  Traits for character type, defaults to
  67:/usr/include/c++/8/bits/basic_string.h ****    *                   char_traits<_CharT>.
  68:/usr/include/c++/8/bits/basic_string.h ****    *  @tparam _Alloc  Allocator type, defaults to allocator<_CharT>.
  69:/usr/include/c++/8/bits/basic_string.h ****    *
  70:/usr/include/c++/8/bits/basic_string.h ****    *  Meets the requirements of a <a href="tables.html#65">container</a>, a
  71:/usr/include/c++/8/bits/basic_string.h ****    *  <a href="tables.html#66">reversible container</a>, and a
  72:/usr/include/c++/8/bits/basic_string.h ****    *  <a href="tables.html#67">sequence</a>.  Of the
  73:/usr/include/c++/8/bits/basic_string.h ****    *  <a href="tables.html#68">optional sequence requirements</a>, only
  74:/usr/include/c++/8/bits/basic_string.h ****    *  @c push_back, @c at, and @c %array access are supported.
  75:/usr/include/c++/8/bits/basic_string.h ****    */
  76:/usr/include/c++/8/bits/basic_string.h ****   template<typename _CharT, typename _Traits, typename _Alloc>
  77:/usr/include/c++/8/bits/basic_string.h ****     class basic_string
  78:/usr/include/c++/8/bits/basic_string.h ****     {
  79:/usr/include/c++/8/bits/basic_string.h ****       typedef typename __gnu_cxx::__alloc_traits<_Alloc>::template
  80:/usr/include/c++/8/bits/basic_string.h **** 	rebind<_CharT>::other _Char_alloc_type;
  81:/usr/include/c++/8/bits/basic_string.h ****       typedef __gnu_cxx::__alloc_traits<_Char_alloc_type> _Alloc_traits;
  82:/usr/include/c++/8/bits/basic_string.h **** 
  83:/usr/include/c++/8/bits/basic_string.h ****       // Types:
  84:/usr/include/c++/8/bits/basic_string.h ****     public:
  85:/usr/include/c++/8/bits/basic_string.h ****       typedef _Traits					traits_type;
  86:/usr/include/c++/8/bits/basic_string.h ****       typedef typename _Traits::char_type		value_type;
  87:/usr/include/c++/8/bits/basic_string.h ****       typedef _Char_alloc_type				allocator_type;
  88:/usr/include/c++/8/bits/basic_string.h ****       typedef typename _Alloc_traits::size_type		size_type;
  89:/usr/include/c++/8/bits/basic_string.h ****       typedef typename _Alloc_traits::difference_type	difference_type;
  90:/usr/include/c++/8/bits/basic_string.h ****       typedef typename _Alloc_traits::reference		reference;
  91:/usr/include/c++/8/bits/basic_string.h ****       typedef typename _Alloc_traits::const_reference	const_reference;
  92:/usr/include/c++/8/bits/basic_string.h ****       typedef typename _Alloc_traits::pointer		pointer;
  93:/usr/include/c++/8/bits/basic_string.h ****       typedef typename _Alloc_traits::const_pointer	const_pointer;
  94:/usr/include/c++/8/bits/basic_string.h ****       typedef __gnu_cxx::__normal_iterator<pointer, basic_string>  iterator;
  95:/usr/include/c++/8/bits/basic_string.h ****       typedef __gnu_cxx::__normal_iterator<const_pointer, basic_string>
  96:/usr/include/c++/8/bits/basic_string.h **** 							const_iterator;
  97:/usr/include/c++/8/bits/basic_string.h ****       typedef std::reverse_iterator<const_iterator>	const_reverse_iterator;
  98:/usr/include/c++/8/bits/basic_string.h ****       typedef std::reverse_iterator<iterator>		reverse_iterator;
  99:/usr/include/c++/8/bits/basic_string.h **** 
 100:/usr/include/c++/8/bits/basic_string.h ****       ///  Value returned by various member functions when they fail.
 101:/usr/include/c++/8/bits/basic_string.h ****       static const size_type	npos = static_cast<size_type>(-1);
 102:/usr/include/c++/8/bits/basic_string.h **** 
 103:/usr/include/c++/8/bits/basic_string.h ****     private:
 104:/usr/include/c++/8/bits/basic_string.h ****       // type used for positions in insert, erase etc.
 105:/usr/include/c++/8/bits/basic_string.h **** #if __cplusplus < 201103L
 106:/usr/include/c++/8/bits/basic_string.h ****       typedef iterator __const_iterator;
 107:/usr/include/c++/8/bits/basic_string.h **** #else
 108:/usr/include/c++/8/bits/basic_string.h ****       typedef const_iterator __const_iterator;
 109:/usr/include/c++/8/bits/basic_string.h **** #endif
 110:/usr/include/c++/8/bits/basic_string.h **** 
 111:/usr/include/c++/8/bits/basic_string.h **** #if __cplusplus > 201402L
 112:/usr/include/c++/8/bits/basic_string.h ****       // A helper type for avoiding boiler-plate.
 113:/usr/include/c++/8/bits/basic_string.h ****       typedef basic_string_view<_CharT, _Traits> __sv_type;
 114:/usr/include/c++/8/bits/basic_string.h **** 
 115:/usr/include/c++/8/bits/basic_string.h ****       template<typename _Tp, typename _Res>
 116:/usr/include/c++/8/bits/basic_string.h **** 	using _If_sv = enable_if_t<
 117:/usr/include/c++/8/bits/basic_string.h **** 	  __and_<is_convertible<const _Tp&, __sv_type>,
 118:/usr/include/c++/8/bits/basic_string.h **** 		 __not_<is_convertible<const _Tp*, const basic_string*>>,
 119:/usr/include/c++/8/bits/basic_string.h **** 		 __not_<is_convertible<const _Tp&, const _CharT*>>>::value,
 120:/usr/include/c++/8/bits/basic_string.h **** 	  _Res>;
 121:/usr/include/c++/8/bits/basic_string.h **** 
 122:/usr/include/c++/8/bits/basic_string.h ****       // Allows an implicit conversion to __sv_type.
 123:/usr/include/c++/8/bits/basic_string.h ****       static __sv_type
 124:/usr/include/c++/8/bits/basic_string.h ****       _S_to_string_view(__sv_type __svt) noexcept
 125:/usr/include/c++/8/bits/basic_string.h ****       { return __svt; }
 126:/usr/include/c++/8/bits/basic_string.h **** 
 127:/usr/include/c++/8/bits/basic_string.h ****       // Wraps a string_view by explicit conversion and thus
 128:/usr/include/c++/8/bits/basic_string.h ****       // allows to add an internal constructor that does not
 129:/usr/include/c++/8/bits/basic_string.h ****       // participate in overload resolution when a string_view
 130:/usr/include/c++/8/bits/basic_string.h ****       // is provided.
 131:/usr/include/c++/8/bits/basic_string.h ****       struct __sv_wrapper
 132:/usr/include/c++/8/bits/basic_string.h ****       {
 133:/usr/include/c++/8/bits/basic_string.h **** 	explicit __sv_wrapper(__sv_type __sv) noexcept : _M_sv(__sv) { }
 134:/usr/include/c++/8/bits/basic_string.h **** 	__sv_type _M_sv;
 135:/usr/include/c++/8/bits/basic_string.h ****       };
 136:/usr/include/c++/8/bits/basic_string.h **** #endif
 137:/usr/include/c++/8/bits/basic_string.h **** 
 138:/usr/include/c++/8/bits/basic_string.h ****       // Use empty-base optimization: http://www.cantrip.org/emptyopt.html
 139:/usr/include/c++/8/bits/basic_string.h ****       struct _Alloc_hider : allocator_type // TODO check __is_final
 140:/usr/include/c++/8/bits/basic_string.h ****       {
 141:/usr/include/c++/8/bits/basic_string.h **** #if __cplusplus < 201103L
 142:/usr/include/c++/8/bits/basic_string.h **** 	_Alloc_hider(pointer __dat, const _Alloc& __a = _Alloc())
 143:/usr/include/c++/8/bits/basic_string.h **** 	: allocator_type(__a), _M_p(__dat) { }
 144:/usr/include/c++/8/bits/basic_string.h **** #else
 145:/usr/include/c++/8/bits/basic_string.h **** 	_Alloc_hider(pointer __dat, const _Alloc& __a)
 146:/usr/include/c++/8/bits/basic_string.h **** 	: allocator_type(__a), _M_p(__dat) { }
 147:/usr/include/c++/8/bits/basic_string.h **** 
 148:/usr/include/c++/8/bits/basic_string.h **** 	_Alloc_hider(pointer __dat, _Alloc&& __a = _Alloc())
 149:/usr/include/c++/8/bits/basic_string.h **** 	: allocator_type(std::move(__a)), _M_p(__dat) { }
 150:/usr/include/c++/8/bits/basic_string.h **** #endif
 151:/usr/include/c++/8/bits/basic_string.h **** 
 152:/usr/include/c++/8/bits/basic_string.h **** 	pointer _M_p; // The actual data.
 153:/usr/include/c++/8/bits/basic_string.h ****       };
 154:/usr/include/c++/8/bits/basic_string.h **** 
 155:/usr/include/c++/8/bits/basic_string.h ****       _Alloc_hider	_M_dataplus;
 156:/usr/include/c++/8/bits/basic_string.h ****       size_type		_M_string_length;
 157:/usr/include/c++/8/bits/basic_string.h **** 
 158:/usr/include/c++/8/bits/basic_string.h ****       enum { _S_local_capacity = 15 / sizeof(_CharT) };
 159:/usr/include/c++/8/bits/basic_string.h **** 
 160:/usr/include/c++/8/bits/basic_string.h ****       union
 161:/usr/include/c++/8/bits/basic_string.h ****       {
 162:/usr/include/c++/8/bits/basic_string.h **** 	_CharT           _M_local_buf[_S_local_capacity + 1];
 163:/usr/include/c++/8/bits/basic_string.h **** 	size_type        _M_allocated_capacity;
 164:/usr/include/c++/8/bits/basic_string.h ****       };
 165:/usr/include/c++/8/bits/basic_string.h **** 
 166:/usr/include/c++/8/bits/basic_string.h ****       void
 167:/usr/include/c++/8/bits/basic_string.h ****       _M_data(pointer __p)
 168:/usr/include/c++/8/bits/basic_string.h ****       { _M_dataplus._M_p = __p; }
 169:/usr/include/c++/8/bits/basic_string.h **** 
 170:/usr/include/c++/8/bits/basic_string.h ****       void
 171:/usr/include/c++/8/bits/basic_string.h ****       _M_length(size_type __length)
 172:/usr/include/c++/8/bits/basic_string.h ****       { _M_string_length = __length; }
 173:/usr/include/c++/8/bits/basic_string.h **** 
 174:/usr/include/c++/8/bits/basic_string.h ****       pointer
 175:/usr/include/c++/8/bits/basic_string.h ****       _M_data() const
 176:/usr/include/c++/8/bits/basic_string.h ****       { return _M_dataplus._M_p; }
 177:/usr/include/c++/8/bits/basic_string.h **** 
 178:/usr/include/c++/8/bits/basic_string.h ****       pointer
 179:/usr/include/c++/8/bits/basic_string.h ****       _M_local_data()
 180:/usr/include/c++/8/bits/basic_string.h ****       {
 181:/usr/include/c++/8/bits/basic_string.h **** #if __cplusplus >= 201103L
 182:/usr/include/c++/8/bits/basic_string.h **** 	return std::pointer_traits<pointer>::pointer_to(*_M_local_buf);
 183:/usr/include/c++/8/bits/basic_string.h **** #else
 184:/usr/include/c++/8/bits/basic_string.h **** 	return pointer(_M_local_buf);
 185:/usr/include/c++/8/bits/basic_string.h **** #endif
 186:/usr/include/c++/8/bits/basic_string.h ****       }
 187:/usr/include/c++/8/bits/basic_string.h **** 
 188:/usr/include/c++/8/bits/basic_string.h ****       const_pointer
 189:/usr/include/c++/8/bits/basic_string.h ****       _M_local_data() const
 190:/usr/include/c++/8/bits/basic_string.h ****       {
 191:/usr/include/c++/8/bits/basic_string.h **** #if __cplusplus >= 201103L
 192:/usr/include/c++/8/bits/basic_string.h **** 	return std::pointer_traits<const_pointer>::pointer_to(*_M_local_buf);
 193:/usr/include/c++/8/bits/basic_string.h **** #else
 194:/usr/include/c++/8/bits/basic_string.h **** 	return const_pointer(_M_local_buf);
 195:/usr/include/c++/8/bits/basic_string.h **** #endif
 196:/usr/include/c++/8/bits/basic_string.h ****       }
 197:/usr/include/c++/8/bits/basic_string.h **** 
 198:/usr/include/c++/8/bits/basic_string.h ****       void
 199:/usr/include/c++/8/bits/basic_string.h ****       _M_capacity(size_type __capacity)
 200:/usr/include/c++/8/bits/basic_string.h ****       { _M_allocated_capacity = __capacity; }
 201:/usr/include/c++/8/bits/basic_string.h **** 
 202:/usr/include/c++/8/bits/basic_string.h ****       void
 203:/usr/include/c++/8/bits/basic_string.h ****       _M_set_length(size_type __n)
 204:/usr/include/c++/8/bits/basic_string.h ****       {
 205:/usr/include/c++/8/bits/basic_string.h **** 	_M_length(__n);
 206:/usr/include/c++/8/bits/basic_string.h **** 	traits_type::assign(_M_data()[__n], _CharT());
 207:/usr/include/c++/8/bits/basic_string.h ****       }
 208:/usr/include/c++/8/bits/basic_string.h **** 
 209:/usr/include/c++/8/bits/basic_string.h ****       bool
 210:/usr/include/c++/8/bits/basic_string.h ****       _M_is_local() const
 211:/usr/include/c++/8/bits/basic_string.h ****       { return _M_data() == _M_local_data(); }
 212:/usr/include/c++/8/bits/basic_string.h **** 
 213:/usr/include/c++/8/bits/basic_string.h ****       // Create & Destroy
 214:/usr/include/c++/8/bits/basic_string.h ****       pointer
 215:/usr/include/c++/8/bits/basic_string.h ****       _M_create(size_type&, size_type);
 216:/usr/include/c++/8/bits/basic_string.h **** 
 217:/usr/include/c++/8/bits/basic_string.h ****       void
 218:/usr/include/c++/8/bits/basic_string.h ****       _M_dispose()
 219:/usr/include/c++/8/bits/basic_string.h ****       {
 220:/usr/include/c++/8/bits/basic_string.h **** 	if (!_M_is_local())
 221:/usr/include/c++/8/bits/basic_string.h **** 	  _M_destroy(_M_allocated_capacity);
 222:/usr/include/c++/8/bits/basic_string.h ****       }
 223:/usr/include/c++/8/bits/basic_string.h **** 
 224:/usr/include/c++/8/bits/basic_string.h ****       void
 225:/usr/include/c++/8/bits/basic_string.h ****       _M_destroy(size_type __size) throw()
 226:/usr/include/c++/8/bits/basic_string.h ****       { _Alloc_traits::deallocate(_M_get_allocator(), _M_data(), __size + 1); }
 227:/usr/include/c++/8/bits/basic_string.h **** 
 228:/usr/include/c++/8/bits/basic_string.h ****       // _M_construct_aux is used to implement the 21.3.1 para 15 which
 229:/usr/include/c++/8/bits/basic_string.h ****       // requires special behaviour if _InIterator is an integral type
 230:/usr/include/c++/8/bits/basic_string.h ****       template<typename _InIterator>
 231:/usr/include/c++/8/bits/basic_string.h ****         void
 232:/usr/include/c++/8/bits/basic_string.h ****         _M_construct_aux(_InIterator __beg, _InIterator __end,
 233:/usr/include/c++/8/bits/basic_string.h **** 			 std::__false_type)
 234:/usr/include/c++/8/bits/basic_string.h **** 	{
 235:/usr/include/c++/8/bits/basic_string.h ****           typedef typename iterator_traits<_InIterator>::iterator_category _Tag;
 236:/usr/include/c++/8/bits/basic_string.h ****           _M_construct(__beg, __end, _Tag());
 237:/usr/include/c++/8/bits/basic_string.h **** 	}
 238:/usr/include/c++/8/bits/basic_string.h **** 
 239:/usr/include/c++/8/bits/basic_string.h ****       // _GLIBCXX_RESOLVE_LIB_DEFECTS
 240:/usr/include/c++/8/bits/basic_string.h ****       // 438. Ambiguity in the "do the right thing" clause
 241:/usr/include/c++/8/bits/basic_string.h ****       template<typename _Integer>
 242:/usr/include/c++/8/bits/basic_string.h ****         void
 243:/usr/include/c++/8/bits/basic_string.h ****         _M_construct_aux(_Integer __beg, _Integer __end, std::__true_type)
 244:/usr/include/c++/8/bits/basic_string.h **** 	{ _M_construct_aux_2(static_cast<size_type>(__beg), __end); }
 245:/usr/include/c++/8/bits/basic_string.h **** 
 246:/usr/include/c++/8/bits/basic_string.h ****       void
 247:/usr/include/c++/8/bits/basic_string.h ****       _M_construct_aux_2(size_type __req, _CharT __c)
 248:/usr/include/c++/8/bits/basic_string.h ****       { _M_construct(__req, __c); }
 249:/usr/include/c++/8/bits/basic_string.h **** 
 250:/usr/include/c++/8/bits/basic_string.h ****       template<typename _InIterator>
 251:/usr/include/c++/8/bits/basic_string.h ****         void
 252:/usr/include/c++/8/bits/basic_string.h ****         _M_construct(_InIterator __beg, _InIterator __end)
 253:/usr/include/c++/8/bits/basic_string.h **** 	{
 254:/usr/include/c++/8/bits/basic_string.h **** 	  typedef typename std::__is_integer<_InIterator>::__type _Integral;
 255:/usr/include/c++/8/bits/basic_string.h **** 	  _M_construct_aux(__beg, __end, _Integral());
 256:/usr/include/c++/8/bits/basic_string.h ****         }
 257:/usr/include/c++/8/bits/basic_string.h **** 
 258:/usr/include/c++/8/bits/basic_string.h ****       // For Input Iterators, used in istreambuf_iterators, etc.
 259:/usr/include/c++/8/bits/basic_string.h ****       template<typename _InIterator>
 260:/usr/include/c++/8/bits/basic_string.h ****         void
 261:/usr/include/c++/8/bits/basic_string.h ****         _M_construct(_InIterator __beg, _InIterator __end,
 262:/usr/include/c++/8/bits/basic_string.h **** 		     std::input_iterator_tag);
 263:/usr/include/c++/8/bits/basic_string.h **** 
 264:/usr/include/c++/8/bits/basic_string.h ****       // For forward_iterators up to random_access_iterators, used for
 265:/usr/include/c++/8/bits/basic_string.h ****       // string::iterator, _CharT*, etc.
 266:/usr/include/c++/8/bits/basic_string.h ****       template<typename _FwdIterator>
 267:/usr/include/c++/8/bits/basic_string.h ****         void
 268:/usr/include/c++/8/bits/basic_string.h ****         _M_construct(_FwdIterator __beg, _FwdIterator __end,
 269:/usr/include/c++/8/bits/basic_string.h **** 		     std::forward_iterator_tag);
 270:/usr/include/c++/8/bits/basic_string.h **** 
 271:/usr/include/c++/8/bits/basic_string.h ****       void
 272:/usr/include/c++/8/bits/basic_string.h ****       _M_construct(size_type __req, _CharT __c);
 273:/usr/include/c++/8/bits/basic_string.h **** 
 274:/usr/include/c++/8/bits/basic_string.h ****       allocator_type&
 275:/usr/include/c++/8/bits/basic_string.h ****       _M_get_allocator()
 276:/usr/include/c++/8/bits/basic_string.h ****       { return _M_dataplus; }
 277:/usr/include/c++/8/bits/basic_string.h **** 
 278:/usr/include/c++/8/bits/basic_string.h ****       const allocator_type&
 279:/usr/include/c++/8/bits/basic_string.h ****       _M_get_allocator() const
 280:/usr/include/c++/8/bits/basic_string.h ****       { return _M_dataplus; }
 281:/usr/include/c++/8/bits/basic_string.h **** 
 282:/usr/include/c++/8/bits/basic_string.h ****     private:
 283:/usr/include/c++/8/bits/basic_string.h **** 
 284:/usr/include/c++/8/bits/basic_string.h **** #ifdef _GLIBCXX_DISAMBIGUATE_REPLACE_INST
 285:/usr/include/c++/8/bits/basic_string.h ****       // The explicit instantiations in misc-inst.cc require this due to
 286:/usr/include/c++/8/bits/basic_string.h ****       // https://gcc.gnu.org/bugzilla/show_bug.cgi?id=64063
 287:/usr/include/c++/8/bits/basic_string.h ****       template<typename _Tp, bool _Requires =
 288:/usr/include/c++/8/bits/basic_string.h **** 	       !__are_same<_Tp, _CharT*>::__value
 289:/usr/include/c++/8/bits/basic_string.h **** 	       && !__are_same<_Tp, const _CharT*>::__value
 290:/usr/include/c++/8/bits/basic_string.h **** 	       && !__are_same<_Tp, iterator>::__value
 291:/usr/include/c++/8/bits/basic_string.h **** 	       && !__are_same<_Tp, const_iterator>::__value>
 292:/usr/include/c++/8/bits/basic_string.h **** 	struct __enable_if_not_native_iterator
 293:/usr/include/c++/8/bits/basic_string.h **** 	{ typedef basic_string& __type; };
 294:/usr/include/c++/8/bits/basic_string.h ****       template<typename _Tp>
 295:/usr/include/c++/8/bits/basic_string.h **** 	struct __enable_if_not_native_iterator<_Tp, false> { };
 296:/usr/include/c++/8/bits/basic_string.h **** #endif
 297:/usr/include/c++/8/bits/basic_string.h **** 
 298:/usr/include/c++/8/bits/basic_string.h ****       size_type
 299:/usr/include/c++/8/bits/basic_string.h ****       _M_check(size_type __pos, const char* __s) const
 300:/usr/include/c++/8/bits/basic_string.h ****       {
 301:/usr/include/c++/8/bits/basic_string.h **** 	if (__pos > this->size())
 302:/usr/include/c++/8/bits/basic_string.h **** 	  __throw_out_of_range_fmt(__N("%s: __pos (which is %zu) > "
 303:/usr/include/c++/8/bits/basic_string.h **** 				       "this->size() (which is %zu)"),
 304:/usr/include/c++/8/bits/basic_string.h **** 				   __s, __pos, this->size());
 305:/usr/include/c++/8/bits/basic_string.h **** 	return __pos;
 306:/usr/include/c++/8/bits/basic_string.h ****       }
 307:/usr/include/c++/8/bits/basic_string.h **** 
 308:/usr/include/c++/8/bits/basic_string.h ****       void
 309:/usr/include/c++/8/bits/basic_string.h ****       _M_check_length(size_type __n1, size_type __n2, const char* __s) const
 310:/usr/include/c++/8/bits/basic_string.h ****       {
 311:/usr/include/c++/8/bits/basic_string.h **** 	if (this->max_size() - (this->size() - __n1) < __n2)
 312:/usr/include/c++/8/bits/basic_string.h **** 	  __throw_length_error(__N(__s));
 313:/usr/include/c++/8/bits/basic_string.h ****       }
 314:/usr/include/c++/8/bits/basic_string.h **** 
 315:/usr/include/c++/8/bits/basic_string.h **** 
 316:/usr/include/c++/8/bits/basic_string.h ****       // NB: _M_limit doesn't check for a bad __pos value.
 317:/usr/include/c++/8/bits/basic_string.h ****       size_type
 318:/usr/include/c++/8/bits/basic_string.h ****       _M_limit(size_type __pos, size_type __off) const _GLIBCXX_NOEXCEPT
 319:/usr/include/c++/8/bits/basic_string.h ****       {
 320:/usr/include/c++/8/bits/basic_string.h **** 	const bool __testoff =  __off < this->size() - __pos;
 321:/usr/include/c++/8/bits/basic_string.h **** 	return __testoff ? __off : this->size() - __pos;
 322:/usr/include/c++/8/bits/basic_string.h ****       }
 323:/usr/include/c++/8/bits/basic_string.h **** 
 324:/usr/include/c++/8/bits/basic_string.h ****       // True if _Rep and source do not overlap.
 325:/usr/include/c++/8/bits/basic_string.h ****       bool
 326:/usr/include/c++/8/bits/basic_string.h ****       _M_disjunct(const _CharT* __s) const _GLIBCXX_NOEXCEPT
 327:/usr/include/c++/8/bits/basic_string.h ****       {
 328:/usr/include/c++/8/bits/basic_string.h **** 	return (less<const _CharT*>()(__s, _M_data())
 329:/usr/include/c++/8/bits/basic_string.h **** 		|| less<const _CharT*>()(_M_data() + this->size(), __s));
 330:/usr/include/c++/8/bits/basic_string.h ****       }
 331:/usr/include/c++/8/bits/basic_string.h **** 
 332:/usr/include/c++/8/bits/basic_string.h ****       // When __n = 1 way faster than the general multichar
 333:/usr/include/c++/8/bits/basic_string.h ****       // traits_type::copy/move/assign.
 334:/usr/include/c++/8/bits/basic_string.h ****       static void
 335:/usr/include/c++/8/bits/basic_string.h ****       _S_copy(_CharT* __d, const _CharT* __s, size_type __n)
 336:/usr/include/c++/8/bits/basic_string.h ****       {
 337:/usr/include/c++/8/bits/basic_string.h **** 	if (__n == 1)
 338:/usr/include/c++/8/bits/basic_string.h **** 	  traits_type::assign(*__d, *__s);
 339:/usr/include/c++/8/bits/basic_string.h **** 	else
 340:/usr/include/c++/8/bits/basic_string.h **** 	  traits_type::copy(__d, __s, __n);
 341:/usr/include/c++/8/bits/basic_string.h ****       }
 342:/usr/include/c++/8/bits/basic_string.h **** 
 343:/usr/include/c++/8/bits/basic_string.h ****       static void
 344:/usr/include/c++/8/bits/basic_string.h ****       _S_move(_CharT* __d, const _CharT* __s, size_type __n)
 345:/usr/include/c++/8/bits/basic_string.h ****       {
 346:/usr/include/c++/8/bits/basic_string.h **** 	if (__n == 1)
 347:/usr/include/c++/8/bits/basic_string.h **** 	  traits_type::assign(*__d, *__s);
 348:/usr/include/c++/8/bits/basic_string.h **** 	else
 349:/usr/include/c++/8/bits/basic_string.h **** 	  traits_type::move(__d, __s, __n);
 350:/usr/include/c++/8/bits/basic_string.h ****       }
 351:/usr/include/c++/8/bits/basic_string.h **** 
 352:/usr/include/c++/8/bits/basic_string.h ****       static void
 353:/usr/include/c++/8/bits/basic_string.h ****       _S_assign(_CharT* __d, size_type __n, _CharT __c)
 354:/usr/include/c++/8/bits/basic_string.h ****       {
 355:/usr/include/c++/8/bits/basic_string.h **** 	if (__n == 1)
 356:/usr/include/c++/8/bits/basic_string.h **** 	  traits_type::assign(*__d, __c);
 357:/usr/include/c++/8/bits/basic_string.h **** 	else
 358:/usr/include/c++/8/bits/basic_string.h **** 	  traits_type::assign(__d, __n, __c);
 359:/usr/include/c++/8/bits/basic_string.h ****       }
 360:/usr/include/c++/8/bits/basic_string.h **** 
 361:/usr/include/c++/8/bits/basic_string.h ****       // _S_copy_chars is a separate template to permit specialization
 362:/usr/include/c++/8/bits/basic_string.h ****       // to optimize for the common case of pointers as iterators.
 363:/usr/include/c++/8/bits/basic_string.h ****       template<class _Iterator>
 364:/usr/include/c++/8/bits/basic_string.h ****         static void
 365:/usr/include/c++/8/bits/basic_string.h ****         _S_copy_chars(_CharT* __p, _Iterator __k1, _Iterator __k2)
 366:/usr/include/c++/8/bits/basic_string.h ****         {
 367:/usr/include/c++/8/bits/basic_string.h **** 	  for (; __k1 != __k2; ++__k1, (void)++__p)
 368:/usr/include/c++/8/bits/basic_string.h **** 	    traits_type::assign(*__p, *__k1); // These types are off.
 369:/usr/include/c++/8/bits/basic_string.h **** 	}
 370:/usr/include/c++/8/bits/basic_string.h **** 
 371:/usr/include/c++/8/bits/basic_string.h ****       static void
 372:/usr/include/c++/8/bits/basic_string.h ****       _S_copy_chars(_CharT* __p, iterator __k1, iterator __k2) _GLIBCXX_NOEXCEPT
 373:/usr/include/c++/8/bits/basic_string.h ****       { _S_copy_chars(__p, __k1.base(), __k2.base()); }
 374:/usr/include/c++/8/bits/basic_string.h **** 
 375:/usr/include/c++/8/bits/basic_string.h ****       static void
 376:/usr/include/c++/8/bits/basic_string.h ****       _S_copy_chars(_CharT* __p, const_iterator __k1, const_iterator __k2)
 377:/usr/include/c++/8/bits/basic_string.h ****       _GLIBCXX_NOEXCEPT
 378:/usr/include/c++/8/bits/basic_string.h ****       { _S_copy_chars(__p, __k1.base(), __k2.base()); }
 379:/usr/include/c++/8/bits/basic_string.h **** 
 380:/usr/include/c++/8/bits/basic_string.h ****       static void
 381:/usr/include/c++/8/bits/basic_string.h ****       _S_copy_chars(_CharT* __p, _CharT* __k1, _CharT* __k2) _GLIBCXX_NOEXCEPT
 382:/usr/include/c++/8/bits/basic_string.h ****       { _S_copy(__p, __k1, __k2 - __k1); }
 383:/usr/include/c++/8/bits/basic_string.h **** 
 384:/usr/include/c++/8/bits/basic_string.h ****       static void
 385:/usr/include/c++/8/bits/basic_string.h ****       _S_copy_chars(_CharT* __p, const _CharT* __k1, const _CharT* __k2)
 386:/usr/include/c++/8/bits/basic_string.h ****       _GLIBCXX_NOEXCEPT
 387:/usr/include/c++/8/bits/basic_string.h ****       { _S_copy(__p, __k1, __k2 - __k1); }
 388:/usr/include/c++/8/bits/basic_string.h **** 
 389:/usr/include/c++/8/bits/basic_string.h ****       static int
 390:/usr/include/c++/8/bits/basic_string.h ****       _S_compare(size_type __n1, size_type __n2) _GLIBCXX_NOEXCEPT
 391:/usr/include/c++/8/bits/basic_string.h ****       {
 392:/usr/include/c++/8/bits/basic_string.h **** 	const difference_type __d = difference_type(__n1 - __n2);
 393:/usr/include/c++/8/bits/basic_string.h **** 
 394:/usr/include/c++/8/bits/basic_string.h **** 	if (__d > __gnu_cxx::__numeric_traits<int>::__max)
 395:/usr/include/c++/8/bits/basic_string.h **** 	  return __gnu_cxx::__numeric_traits<int>::__max;
 396:/usr/include/c++/8/bits/basic_string.h **** 	else if (__d < __gnu_cxx::__numeric_traits<int>::__min)
 397:/usr/include/c++/8/bits/basic_string.h **** 	  return __gnu_cxx::__numeric_traits<int>::__min;
 398:/usr/include/c++/8/bits/basic_string.h **** 	else
 399:/usr/include/c++/8/bits/basic_string.h **** 	  return int(__d);
 400:/usr/include/c++/8/bits/basic_string.h ****       }
 401:/usr/include/c++/8/bits/basic_string.h **** 
 402:/usr/include/c++/8/bits/basic_string.h ****       void
 403:/usr/include/c++/8/bits/basic_string.h ****       _M_assign(const basic_string&);
 404:/usr/include/c++/8/bits/basic_string.h **** 
 405:/usr/include/c++/8/bits/basic_string.h ****       void
 406:/usr/include/c++/8/bits/basic_string.h ****       _M_mutate(size_type __pos, size_type __len1, const _CharT* __s,
 407:/usr/include/c++/8/bits/basic_string.h **** 		size_type __len2);
 408:/usr/include/c++/8/bits/basic_string.h **** 
 409:/usr/include/c++/8/bits/basic_string.h ****       void
 410:/usr/include/c++/8/bits/basic_string.h ****       _M_erase(size_type __pos, size_type __n);
 411:/usr/include/c++/8/bits/basic_string.h **** 
 412:/usr/include/c++/8/bits/basic_string.h ****     public:
 413:/usr/include/c++/8/bits/basic_string.h ****       // Construct/copy/destroy:
 414:/usr/include/c++/8/bits/basic_string.h ****       // NB: We overload ctors in some cases instead of using default
 415:/usr/include/c++/8/bits/basic_string.h ****       // arguments, per 17.4.4.4 para. 2 item 2.
 416:/usr/include/c++/8/bits/basic_string.h **** 
 417:/usr/include/c++/8/bits/basic_string.h ****       /**
 418:/usr/include/c++/8/bits/basic_string.h ****        *  @brief  Default constructor creates an empty string.
 419:/usr/include/c++/8/bits/basic_string.h ****        */
 420:/usr/include/c++/8/bits/basic_string.h ****       basic_string()
 421:/usr/include/c++/8/bits/basic_string.h ****       _GLIBCXX_NOEXCEPT_IF(is_nothrow_default_constructible<_Alloc>::value)
 422:/usr/include/c++/8/bits/basic_string.h ****       : _M_dataplus(_M_local_data())
 423:/usr/include/c++/8/bits/basic_string.h ****       { _M_set_length(0); }
 424:/usr/include/c++/8/bits/basic_string.h **** 
 425:/usr/include/c++/8/bits/basic_string.h ****       /**
 426:/usr/include/c++/8/bits/basic_string.h ****        *  @brief  Construct an empty string using allocator @a a.
 427:/usr/include/c++/8/bits/basic_string.h ****        */
 428:/usr/include/c++/8/bits/basic_string.h ****       explicit
 429:/usr/include/c++/8/bits/basic_string.h ****       basic_string(const _Alloc& __a) _GLIBCXX_NOEXCEPT
 430:/usr/include/c++/8/bits/basic_string.h ****       : _M_dataplus(_M_local_data(), __a)
 431:/usr/include/c++/8/bits/basic_string.h ****       { _M_set_length(0); }
 432:/usr/include/c++/8/bits/basic_string.h **** 
 433:/usr/include/c++/8/bits/basic_string.h ****       /**
 434:/usr/include/c++/8/bits/basic_string.h ****        *  @brief  Construct string with copy of value of @a __str.
 435:/usr/include/c++/8/bits/basic_string.h ****        *  @param  __str  Source string.
 436:/usr/include/c++/8/bits/basic_string.h ****        */
 437:/usr/include/c++/8/bits/basic_string.h ****       basic_string(const basic_string& __str)
 438:/usr/include/c++/8/bits/basic_string.h ****       : _M_dataplus(_M_local_data(),
 439:/usr/include/c++/8/bits/basic_string.h **** 		    _Alloc_traits::_S_select_on_copy(__str._M_get_allocator()))
 440:/usr/include/c++/8/bits/basic_string.h ****       { _M_construct(__str._M_data(), __str._M_data() + __str.length()); }
 441:/usr/include/c++/8/bits/basic_string.h **** 
 442:/usr/include/c++/8/bits/basic_string.h ****       // _GLIBCXX_RESOLVE_LIB_DEFECTS
 443:/usr/include/c++/8/bits/basic_string.h ****       // 2583. no way to supply an allocator for basic_string(str, pos)
 444:/usr/include/c++/8/bits/basic_string.h ****       /**
 445:/usr/include/c++/8/bits/basic_string.h ****        *  @brief  Construct string as copy of a substring.
 446:/usr/include/c++/8/bits/basic_string.h ****        *  @param  __str  Source string.
 447:/usr/include/c++/8/bits/basic_string.h ****        *  @param  __pos  Index of first character to copy from.
 448:/usr/include/c++/8/bits/basic_string.h ****        *  @param  __a  Allocator to use.
 449:/usr/include/c++/8/bits/basic_string.h ****        */
 450:/usr/include/c++/8/bits/basic_string.h ****       basic_string(const basic_string& __str, size_type __pos,
 451:/usr/include/c++/8/bits/basic_string.h **** 		   const _Alloc& __a = _Alloc())
 452:/usr/include/c++/8/bits/basic_string.h ****       : _M_dataplus(_M_local_data(), __a)
 453:/usr/include/c++/8/bits/basic_string.h ****       {
 454:/usr/include/c++/8/bits/basic_string.h **** 	const _CharT* __start = __str._M_data()
 455:/usr/include/c++/8/bits/basic_string.h **** 	  + __str._M_check(__pos, "basic_string::basic_string");
 456:/usr/include/c++/8/bits/basic_string.h **** 	_M_construct(__start, __start + __str._M_limit(__pos, npos));
 457:/usr/include/c++/8/bits/basic_string.h ****       }
 458:/usr/include/c++/8/bits/basic_string.h **** 
 459:/usr/include/c++/8/bits/basic_string.h ****       /**
 460:/usr/include/c++/8/bits/basic_string.h ****        *  @brief  Construct string as copy of a substring.
 461:/usr/include/c++/8/bits/basic_string.h ****        *  @param  __str  Source string.
 462:/usr/include/c++/8/bits/basic_string.h ****        *  @param  __pos  Index of first character to copy from.
 463:/usr/include/c++/8/bits/basic_string.h ****        *  @param  __n  Number of characters to copy.
 464:/usr/include/c++/8/bits/basic_string.h ****        */
 465:/usr/include/c++/8/bits/basic_string.h ****       basic_string(const basic_string& __str, size_type __pos,
 466:/usr/include/c++/8/bits/basic_string.h **** 		   size_type __n)
 467:/usr/include/c++/8/bits/basic_string.h ****       : _M_dataplus(_M_local_data())
 468:/usr/include/c++/8/bits/basic_string.h ****       {
 469:/usr/include/c++/8/bits/basic_string.h **** 	const _CharT* __start = __str._M_data()
 470:/usr/include/c++/8/bits/basic_string.h **** 	  + __str._M_check(__pos, "basic_string::basic_string");
 471:/usr/include/c++/8/bits/basic_string.h **** 	_M_construct(__start, __start + __str._M_limit(__pos, __n));
 472:/usr/include/c++/8/bits/basic_string.h ****       }
 473:/usr/include/c++/8/bits/basic_string.h **** 
 474:/usr/include/c++/8/bits/basic_string.h ****       /**
 475:/usr/include/c++/8/bits/basic_string.h ****        *  @brief  Construct string as copy of a substring.
 476:/usr/include/c++/8/bits/basic_string.h ****        *  @param  __str  Source string.
 477:/usr/include/c++/8/bits/basic_string.h ****        *  @param  __pos  Index of first character to copy from.
 478:/usr/include/c++/8/bits/basic_string.h ****        *  @param  __n  Number of characters to copy.
 479:/usr/include/c++/8/bits/basic_string.h ****        *  @param  __a  Allocator to use.
 480:/usr/include/c++/8/bits/basic_string.h ****        */
 481:/usr/include/c++/8/bits/basic_string.h ****       basic_string(const basic_string& __str, size_type __pos,
 482:/usr/include/c++/8/bits/basic_string.h **** 		   size_type __n, const _Alloc& __a)
 483:/usr/include/c++/8/bits/basic_string.h ****       : _M_dataplus(_M_local_data(), __a)
 484:/usr/include/c++/8/bits/basic_string.h ****       {
 485:/usr/include/c++/8/bits/basic_string.h **** 	const _CharT* __start
 486:/usr/include/c++/8/bits/basic_string.h **** 	  = __str._M_data() + __str._M_check(__pos, "string::string");
 487:/usr/include/c++/8/bits/basic_string.h **** 	_M_construct(__start, __start + __str._M_limit(__pos, __n));
 488:/usr/include/c++/8/bits/basic_string.h ****       }
 489:/usr/include/c++/8/bits/basic_string.h **** 
 490:/usr/include/c++/8/bits/basic_string.h ****       /**
 491:/usr/include/c++/8/bits/basic_string.h ****        *  @brief  Construct string initialized by a character %array.
 492:/usr/include/c++/8/bits/basic_string.h ****        *  @param  __s  Source character %array.
 493:/usr/include/c++/8/bits/basic_string.h ****        *  @param  __n  Number of characters to copy.
 494:/usr/include/c++/8/bits/basic_string.h ****        *  @param  __a  Allocator to use (default is default allocator).
 495:/usr/include/c++/8/bits/basic_string.h ****        *
 496:/usr/include/c++/8/bits/basic_string.h ****        *  NB: @a __s must have at least @a __n characters, &apos;\\0&apos;
 497:/usr/include/c++/8/bits/basic_string.h ****        *  has no special meaning.
 498:/usr/include/c++/8/bits/basic_string.h ****        */
 499:/usr/include/c++/8/bits/basic_string.h ****       basic_string(const _CharT* __s, size_type __n,
 500:/usr/include/c++/8/bits/basic_string.h **** 		   const _Alloc& __a = _Alloc())
 501:/usr/include/c++/8/bits/basic_string.h ****       : _M_dataplus(_M_local_data(), __a)
 502:/usr/include/c++/8/bits/basic_string.h ****       { _M_construct(__s, __s + __n); }
 503:/usr/include/c++/8/bits/basic_string.h **** 
 504:/usr/include/c++/8/bits/basic_string.h ****       /**
 505:/usr/include/c++/8/bits/basic_string.h ****        *  @brief  Construct string as copy of a C string.
 506:/usr/include/c++/8/bits/basic_string.h ****        *  @param  __s  Source C string.
 507:/usr/include/c++/8/bits/basic_string.h ****        *  @param  __a  Allocator to use (default is default allocator).
 508:/usr/include/c++/8/bits/basic_string.h ****        */
 509:/usr/include/c++/8/bits/basic_string.h **** #if __cpp_deduction_guides && ! defined _GLIBCXX_DEFINING_STRING_INSTANTIATIONS
 510:/usr/include/c++/8/bits/basic_string.h ****       // _GLIBCXX_RESOLVE_LIB_DEFECTS
 511:/usr/include/c++/8/bits/basic_string.h ****       // 3076. basic_string CTAD ambiguity
 512:/usr/include/c++/8/bits/basic_string.h ****       template<typename = _RequireAllocator<_Alloc>>
 513:/usr/include/c++/8/bits/basic_string.h **** #endif
 514:/usr/include/c++/8/bits/basic_string.h ****       basic_string(const _CharT* __s, const _Alloc& __a = _Alloc())
 515:/usr/include/c++/8/bits/basic_string.h ****       : _M_dataplus(_M_local_data(), __a)
 516:/usr/include/c++/8/bits/basic_string.h ****       { _M_construct(__s, __s ? __s + traits_type::length(__s) : __s+npos); }
 517:/usr/include/c++/8/bits/basic_string.h **** 
 518:/usr/include/c++/8/bits/basic_string.h ****       /**
 519:/usr/include/c++/8/bits/basic_string.h ****        *  @brief  Construct string as multiple characters.
 520:/usr/include/c++/8/bits/basic_string.h ****        *  @param  __n  Number of characters.
 521:/usr/include/c++/8/bits/basic_string.h ****        *  @param  __c  Character to use.
 522:/usr/include/c++/8/bits/basic_string.h ****        *  @param  __a  Allocator to use (default is default allocator).
 523:/usr/include/c++/8/bits/basic_string.h ****        */
 524:/usr/include/c++/8/bits/basic_string.h **** #if __cpp_deduction_guides && ! defined _GLIBCXX_DEFINING_STRING_INSTANTIATIONS
 525:/usr/include/c++/8/bits/basic_string.h ****       // _GLIBCXX_RESOLVE_LIB_DEFECTS
 526:/usr/include/c++/8/bits/basic_string.h ****       // 3076. basic_string CTAD ambiguity
 527:/usr/include/c++/8/bits/basic_string.h ****       template<typename = _RequireAllocator<_Alloc>>
 528:/usr/include/c++/8/bits/basic_string.h **** #endif
 529:/usr/include/c++/8/bits/basic_string.h ****       basic_string(size_type __n, _CharT __c, const _Alloc& __a = _Alloc())
 530:/usr/include/c++/8/bits/basic_string.h ****       : _M_dataplus(_M_local_data(), __a)
 531:/usr/include/c++/8/bits/basic_string.h ****       { _M_construct(__n, __c); }
 532:/usr/include/c++/8/bits/basic_string.h **** 
 533:/usr/include/c++/8/bits/basic_string.h **** #if __cplusplus >= 201103L
 534:/usr/include/c++/8/bits/basic_string.h ****       /**
 535:/usr/include/c++/8/bits/basic_string.h ****        *  @brief  Move construct string.
 536:/usr/include/c++/8/bits/basic_string.h ****        *  @param  __str  Source string.
 537:/usr/include/c++/8/bits/basic_string.h ****        *
 538:/usr/include/c++/8/bits/basic_string.h ****        *  The newly-created string contains the exact contents of @a __str.
 539:/usr/include/c++/8/bits/basic_string.h ****        *  @a __str is a valid, but unspecified string.
 540:/usr/include/c++/8/bits/basic_string.h ****        **/
 541:/usr/include/c++/8/bits/basic_string.h ****       basic_string(basic_string&& __str) noexcept
 542:/usr/include/c++/8/bits/basic_string.h ****       : _M_dataplus(_M_local_data(), std::move(__str._M_get_allocator()))
 543:/usr/include/c++/8/bits/basic_string.h ****       {
 544:/usr/include/c++/8/bits/basic_string.h **** 	if (__str._M_is_local())
 545:/usr/include/c++/8/bits/basic_string.h **** 	  {
 546:/usr/include/c++/8/bits/basic_string.h **** 	    traits_type::copy(_M_local_buf, __str._M_local_buf,
 547:/usr/include/c++/8/bits/basic_string.h **** 			      _S_local_capacity + 1);
 548:/usr/include/c++/8/bits/basic_string.h **** 	  }
 549:/usr/include/c++/8/bits/basic_string.h **** 	else
 550:/usr/include/c++/8/bits/basic_string.h **** 	  {
 551:/usr/include/c++/8/bits/basic_string.h **** 	    _M_data(__str._M_data());
 552:/usr/include/c++/8/bits/basic_string.h **** 	    _M_capacity(__str._M_allocated_capacity);
 553:/usr/include/c++/8/bits/basic_string.h **** 	  }
 554:/usr/include/c++/8/bits/basic_string.h **** 
 555:/usr/include/c++/8/bits/basic_string.h **** 	// Must use _M_length() here not _M_set_length() because
 556:/usr/include/c++/8/bits/basic_string.h **** 	// basic_stringbuf relies on writing into unallocated capacity so
 557:/usr/include/c++/8/bits/basic_string.h **** 	// we mess up the contents if we put a '\0' in the string.
 558:/usr/include/c++/8/bits/basic_string.h **** 	_M_length(__str.length());
 559:/usr/include/c++/8/bits/basic_string.h **** 	__str._M_data(__str._M_local_data());
 560:/usr/include/c++/8/bits/basic_string.h **** 	__str._M_set_length(0);
 561:/usr/include/c++/8/bits/basic_string.h ****       }
 562:/usr/include/c++/8/bits/basic_string.h **** 
 563:/usr/include/c++/8/bits/basic_string.h ****       /**
 564:/usr/include/c++/8/bits/basic_string.h ****        *  @brief  Construct string from an initializer %list.
 565:/usr/include/c++/8/bits/basic_string.h ****        *  @param  __l  std::initializer_list of characters.
 566:/usr/include/c++/8/bits/basic_string.h ****        *  @param  __a  Allocator to use (default is default allocator).
 567:/usr/include/c++/8/bits/basic_string.h ****        */
 568:/usr/include/c++/8/bits/basic_string.h ****       basic_string(initializer_list<_CharT> __l, const _Alloc& __a = _Alloc())
 569:/usr/include/c++/8/bits/basic_string.h ****       : _M_dataplus(_M_local_data(), __a)
 570:/usr/include/c++/8/bits/basic_string.h ****       { _M_construct(__l.begin(), __l.end()); }
 571:/usr/include/c++/8/bits/basic_string.h **** 
 572:/usr/include/c++/8/bits/basic_string.h ****       basic_string(const basic_string& __str, const _Alloc& __a)
 573:/usr/include/c++/8/bits/basic_string.h ****       : _M_dataplus(_M_local_data(), __a)
 574:/usr/include/c++/8/bits/basic_string.h ****       { _M_construct(__str.begin(), __str.end()); }
 575:/usr/include/c++/8/bits/basic_string.h **** 
 576:/usr/include/c++/8/bits/basic_string.h ****       basic_string(basic_string&& __str, const _Alloc& __a)
 577:/usr/include/c++/8/bits/basic_string.h ****       noexcept(_Alloc_traits::_S_always_equal())
 578:/usr/include/c++/8/bits/basic_string.h ****       : _M_dataplus(_M_local_data(), __a)
 579:/usr/include/c++/8/bits/basic_string.h ****       {
 580:/usr/include/c++/8/bits/basic_string.h **** 	if (__str._M_is_local())
 581:/usr/include/c++/8/bits/basic_string.h **** 	  {
 582:/usr/include/c++/8/bits/basic_string.h **** 	    traits_type::copy(_M_local_buf, __str._M_local_buf,
 583:/usr/include/c++/8/bits/basic_string.h **** 			      _S_local_capacity + 1);
 584:/usr/include/c++/8/bits/basic_string.h **** 	    _M_length(__str.length());
 585:/usr/include/c++/8/bits/basic_string.h **** 	    __str._M_set_length(0);
 586:/usr/include/c++/8/bits/basic_string.h **** 	  }
 587:/usr/include/c++/8/bits/basic_string.h **** 	else if (_Alloc_traits::_S_always_equal()
 588:/usr/include/c++/8/bits/basic_string.h **** 	    || __str.get_allocator() == __a)
 589:/usr/include/c++/8/bits/basic_string.h **** 	  {
 590:/usr/include/c++/8/bits/basic_string.h **** 	    _M_data(__str._M_data());
 591:/usr/include/c++/8/bits/basic_string.h **** 	    _M_length(__str.length());
 592:/usr/include/c++/8/bits/basic_string.h **** 	    _M_capacity(__str._M_allocated_capacity);
 593:/usr/include/c++/8/bits/basic_string.h **** 	    __str._M_data(__str._M_local_buf);
 594:/usr/include/c++/8/bits/basic_string.h **** 	    __str._M_set_length(0);
 595:/usr/include/c++/8/bits/basic_string.h **** 	  }
 596:/usr/include/c++/8/bits/basic_string.h **** 	else
 597:/usr/include/c++/8/bits/basic_string.h **** 	  _M_construct(__str.begin(), __str.end());
 598:/usr/include/c++/8/bits/basic_string.h ****       }
 599:/usr/include/c++/8/bits/basic_string.h **** 
 600:/usr/include/c++/8/bits/basic_string.h **** #endif // C++11
 601:/usr/include/c++/8/bits/basic_string.h **** 
 602:/usr/include/c++/8/bits/basic_string.h ****       /**
 603:/usr/include/c++/8/bits/basic_string.h ****        *  @brief  Construct string as copy of a range.
 604:/usr/include/c++/8/bits/basic_string.h ****        *  @param  __beg  Start of range.
 605:/usr/include/c++/8/bits/basic_string.h ****        *  @param  __end  End of range.
 606:/usr/include/c++/8/bits/basic_string.h ****        *  @param  __a  Allocator to use (default is default allocator).
 607:/usr/include/c++/8/bits/basic_string.h ****        */
 608:/usr/include/c++/8/bits/basic_string.h **** #if __cplusplus >= 201103L
 609:/usr/include/c++/8/bits/basic_string.h ****       template<typename _InputIterator,
 610:/usr/include/c++/8/bits/basic_string.h **** 	       typename = std::_RequireInputIter<_InputIterator>>
 611:/usr/include/c++/8/bits/basic_string.h **** #else
 612:/usr/include/c++/8/bits/basic_string.h ****       template<typename _InputIterator>
 613:/usr/include/c++/8/bits/basic_string.h **** #endif
 614:/usr/include/c++/8/bits/basic_string.h ****         basic_string(_InputIterator __beg, _InputIterator __end,
 615:/usr/include/c++/8/bits/basic_string.h **** 		     const _Alloc& __a = _Alloc())
 616:/usr/include/c++/8/bits/basic_string.h **** 	: _M_dataplus(_M_local_data(), __a)
 617:/usr/include/c++/8/bits/basic_string.h **** 	{ _M_construct(__beg, __end); }
 618:/usr/include/c++/8/bits/basic_string.h **** 
 619:/usr/include/c++/8/bits/basic_string.h **** #if __cplusplus > 201402L
 620:/usr/include/c++/8/bits/basic_string.h ****       /**
 621:/usr/include/c++/8/bits/basic_string.h ****        *  @brief  Construct string from a substring of a string_view.
 622:/usr/include/c++/8/bits/basic_string.h ****        *  @param  __t   Source object convertible to string view.
 623:/usr/include/c++/8/bits/basic_string.h ****        *  @param  __pos The index of the first character to copy from __t.
 624:/usr/include/c++/8/bits/basic_string.h ****        *  @param  __n   The number of characters to copy from __t.
 625:/usr/include/c++/8/bits/basic_string.h ****        *  @param  __a   Allocator to use.
 626:/usr/include/c++/8/bits/basic_string.h ****        */
 627:/usr/include/c++/8/bits/basic_string.h ****       template<typename _Tp, typename = _If_sv<_Tp, void>>
 628:/usr/include/c++/8/bits/basic_string.h **** 	basic_string(const _Tp& __t, size_type __pos, size_type __n,
 629:/usr/include/c++/8/bits/basic_string.h **** 		     const _Alloc& __a = _Alloc())
 630:/usr/include/c++/8/bits/basic_string.h **** 	: basic_string(_S_to_string_view(__t).substr(__pos, __n), __a) { }
 631:/usr/include/c++/8/bits/basic_string.h **** 
 632:/usr/include/c++/8/bits/basic_string.h ****       /**
 633:/usr/include/c++/8/bits/basic_string.h ****        *  @brief  Construct string from a string_view.
 634:/usr/include/c++/8/bits/basic_string.h ****        *  @param  __t  Source object convertible to string view.
 635:/usr/include/c++/8/bits/basic_string.h ****        *  @param  __a  Allocator to use (default is default allocator).
 636:/usr/include/c++/8/bits/basic_string.h ****        */
 637:/usr/include/c++/8/bits/basic_string.h ****       template<typename _Tp, typename = _If_sv<_Tp, void>>
 638:/usr/include/c++/8/bits/basic_string.h **** 	explicit
 639:/usr/include/c++/8/bits/basic_string.h **** 	basic_string(const _Tp& __t, const _Alloc& __a = _Alloc())
 640:/usr/include/c++/8/bits/basic_string.h **** 	: basic_string(__sv_wrapper(_S_to_string_view(__t)), __a) { }
 641:/usr/include/c++/8/bits/basic_string.h **** 
 642:/usr/include/c++/8/bits/basic_string.h ****       /**
 643:/usr/include/c++/8/bits/basic_string.h ****        *  @brief  Only internally used: Construct string from a string view
 644:/usr/include/c++/8/bits/basic_string.h ****        *          wrapper.
 645:/usr/include/c++/8/bits/basic_string.h ****        *  @param  __svw  string view wrapper.
 646:/usr/include/c++/8/bits/basic_string.h ****        *  @param  __a  Allocator to use.
 647:/usr/include/c++/8/bits/basic_string.h ****        */
 648:/usr/include/c++/8/bits/basic_string.h ****       explicit
 649:/usr/include/c++/8/bits/basic_string.h ****       basic_string(__sv_wrapper __svw, const _Alloc& __a)
 650:/usr/include/c++/8/bits/basic_string.h ****       : basic_string(__svw._M_sv.data(), __svw._M_sv.size(), __a) { }
 651:/usr/include/c++/8/bits/basic_string.h **** #endif // C++17
 652:/usr/include/c++/8/bits/basic_string.h **** 
 653:/usr/include/c++/8/bits/basic_string.h ****       /**
 654:/usr/include/c++/8/bits/basic_string.h ****        *  @brief  Destroy the string instance.
 655:/usr/include/c++/8/bits/basic_string.h ****        */
 656:/usr/include/c++/8/bits/basic_string.h ****       ~basic_string()
 657:/usr/include/c++/8/bits/basic_string.h ****       { _M_dispose(); }
 658:/usr/include/c++/8/bits/basic_string.h **** 
 659:/usr/include/c++/8/bits/basic_string.h ****       /**
 660:/usr/include/c++/8/bits/basic_string.h ****        *  @brief  Assign the value of @a str to this string.
 661:/usr/include/c++/8/bits/basic_string.h ****        *  @param  __str  Source string.
 662:/usr/include/c++/8/bits/basic_string.h ****        */
 663:/usr/include/c++/8/bits/basic_string.h ****       basic_string&
 664:/usr/include/c++/8/bits/basic_string.h ****       operator=(const basic_string& __str)
 665:/usr/include/c++/8/bits/basic_string.h ****       {
 666:/usr/include/c++/8/bits/basic_string.h **** #if __cplusplus >= 201103L
 667:/usr/include/c++/8/bits/basic_string.h **** 	if (_Alloc_traits::_S_propagate_on_copy_assign())
 668:/usr/include/c++/8/bits/basic_string.h **** 	  {
 669:/usr/include/c++/8/bits/basic_string.h **** 	    if (!_Alloc_traits::_S_always_equal() && !_M_is_local()
 670:/usr/include/c++/8/bits/basic_string.h **** 		&& _M_get_allocator() != __str._M_get_allocator())
 671:/usr/include/c++/8/bits/basic_string.h **** 	      {
 672:/usr/include/c++/8/bits/basic_string.h **** 		// Propagating allocator cannot free existing storage so must
 673:/usr/include/c++/8/bits/basic_string.h **** 		// deallocate it before replacing current allocator.
 674:/usr/include/c++/8/bits/basic_string.h **** 		if (__str.size() <= _S_local_capacity)
 675:/usr/include/c++/8/bits/basic_string.h **** 		  {
 676:/usr/include/c++/8/bits/basic_string.h **** 		    _M_destroy(_M_allocated_capacity);
 677:/usr/include/c++/8/bits/basic_string.h **** 		    _M_data(_M_local_data());
 678:/usr/include/c++/8/bits/basic_string.h **** 		    _M_set_length(0);
 679:/usr/include/c++/8/bits/basic_string.h **** 		  }
 680:/usr/include/c++/8/bits/basic_string.h **** 		else
 681:/usr/include/c++/8/bits/basic_string.h **** 		  {
 682:/usr/include/c++/8/bits/basic_string.h **** 		    const auto __len = __str.size();
 683:/usr/include/c++/8/bits/basic_string.h **** 		    auto __alloc = __str._M_get_allocator();
 684:/usr/include/c++/8/bits/basic_string.h **** 		    // If this allocation throws there are no effects:
 685:/usr/include/c++/8/bits/basic_string.h **** 		    auto __ptr = _Alloc_traits::allocate(__alloc, __len + 1);
 686:/usr/include/c++/8/bits/basic_string.h **** 		    _M_destroy(_M_allocated_capacity);
 687:/usr/include/c++/8/bits/basic_string.h **** 		    _M_data(__ptr);
 688:/usr/include/c++/8/bits/basic_string.h **** 		    _M_capacity(__len);
 689:/usr/include/c++/8/bits/basic_string.h **** 		    _M_set_length(__len);
 690:/usr/include/c++/8/bits/basic_string.h **** 		  }
 691:/usr/include/c++/8/bits/basic_string.h **** 	      }
 692:/usr/include/c++/8/bits/basic_string.h **** 	    std::__alloc_on_copy(_M_get_allocator(), __str._M_get_allocator());
 693:/usr/include/c++/8/bits/basic_string.h **** 	  }
 694:/usr/include/c++/8/bits/basic_string.h **** #endif
 695:/usr/include/c++/8/bits/basic_string.h **** 	return this->assign(__str);
 696:/usr/include/c++/8/bits/basic_string.h ****       }
 697:/usr/include/c++/8/bits/basic_string.h **** 
 698:/usr/include/c++/8/bits/basic_string.h ****       /**
 699:/usr/include/c++/8/bits/basic_string.h ****        *  @brief  Copy contents of @a s into this string.
 700:/usr/include/c++/8/bits/basic_string.h ****        *  @param  __s  Source null-terminated string.
 701:/usr/include/c++/8/bits/basic_string.h ****        */
 702:/usr/include/c++/8/bits/basic_string.h ****       basic_string&
 703:/usr/include/c++/8/bits/basic_string.h ****       operator=(const _CharT* __s)
 704:/usr/include/c++/8/bits/basic_string.h ****       { return this->assign(__s); }
 705:/usr/include/c++/8/bits/basic_string.h **** 
 706:/usr/include/c++/8/bits/basic_string.h ****       /**
 707:/usr/include/c++/8/bits/basic_string.h ****        *  @brief  Set value to string of length 1.
 708:/usr/include/c++/8/bits/basic_string.h ****        *  @param  __c  Source character.
 709:/usr/include/c++/8/bits/basic_string.h ****        *
 710:/usr/include/c++/8/bits/basic_string.h ****        *  Assigning to a character makes this string length 1 and
 711:/usr/include/c++/8/bits/basic_string.h ****        *  (*this)[0] == @a c.
 712:/usr/include/c++/8/bits/basic_string.h ****        */
 713:/usr/include/c++/8/bits/basic_string.h ****       basic_string&
 714:/usr/include/c++/8/bits/basic_string.h ****       operator=(_CharT __c)
 715:/usr/include/c++/8/bits/basic_string.h ****       {
 716:/usr/include/c++/8/bits/basic_string.h **** 	this->assign(1, __c);
 717:/usr/include/c++/8/bits/basic_string.h **** 	return *this;
 718:/usr/include/c++/8/bits/basic_string.h ****       }
 719:/usr/include/c++/8/bits/basic_string.h **** 
 720:/usr/include/c++/8/bits/basic_string.h **** #if __cplusplus >= 201103L
 721:/usr/include/c++/8/bits/basic_string.h ****       /**
 722:/usr/include/c++/8/bits/basic_string.h ****        *  @brief  Move assign the value of @a str to this string.
 723:/usr/include/c++/8/bits/basic_string.h ****        *  @param  __str  Source string.
 724:/usr/include/c++/8/bits/basic_string.h ****        *
 725:/usr/include/c++/8/bits/basic_string.h ****        *  The contents of @a str are moved into this string (without copying).
 726:/usr/include/c++/8/bits/basic_string.h ****        *  @a str is a valid, but unspecified string.
 727:/usr/include/c++/8/bits/basic_string.h ****        **/
 728:/usr/include/c++/8/bits/basic_string.h ****       // PR 58265, this should be noexcept.
 729:/usr/include/c++/8/bits/basic_string.h ****       // _GLIBCXX_RESOLVE_LIB_DEFECTS
 730:/usr/include/c++/8/bits/basic_string.h ****       // 2063. Contradictory requirements for string move assignment
 731:/usr/include/c++/8/bits/basic_string.h ****       basic_string&
 732:/usr/include/c++/8/bits/basic_string.h ****       operator=(basic_string&& __str)
 733:/usr/include/c++/8/bits/basic_string.h ****       noexcept(_Alloc_traits::_S_nothrow_move())
 734:/usr/include/c++/8/bits/basic_string.h ****       {
 735:/usr/include/c++/8/bits/basic_string.h **** 	if (!_M_is_local() && _Alloc_traits::_S_propagate_on_move_assign()
 736:/usr/include/c++/8/bits/basic_string.h **** 	    && !_Alloc_traits::_S_always_equal()
 737:/usr/include/c++/8/bits/basic_string.h **** 	    && _M_get_allocator() != __str._M_get_allocator())
 738:/usr/include/c++/8/bits/basic_string.h **** 	  {
 739:/usr/include/c++/8/bits/basic_string.h **** 	    // Destroy existing storage before replacing allocator.
 740:/usr/include/c++/8/bits/basic_string.h **** 	    _M_destroy(_M_allocated_capacity);
 741:/usr/include/c++/8/bits/basic_string.h **** 	    _M_data(_M_local_data());
 742:/usr/include/c++/8/bits/basic_string.h **** 	    _M_set_length(0);
 743:/usr/include/c++/8/bits/basic_string.h **** 	  }
 744:/usr/include/c++/8/bits/basic_string.h **** 	// Replace allocator if POCMA is true.
 745:/usr/include/c++/8/bits/basic_string.h **** 	std::__alloc_on_move(_M_get_allocator(), __str._M_get_allocator());
 746:/usr/include/c++/8/bits/basic_string.h **** 
 747:/usr/include/c++/8/bits/basic_string.h **** 	if (__str._M_is_local())
 748:/usr/include/c++/8/bits/basic_string.h **** 	  {
 749:/usr/include/c++/8/bits/basic_string.h **** 	    // We've always got room for a short string, just copy it.
 750:/usr/include/c++/8/bits/basic_string.h **** 	    if (__str.size())
 751:/usr/include/c++/8/bits/basic_string.h **** 	      this->_S_copy(_M_data(), __str._M_data(), __str.size());
 752:/usr/include/c++/8/bits/basic_string.h **** 	    _M_set_length(__str.size());
 753:/usr/include/c++/8/bits/basic_string.h **** 	  }
 754:/usr/include/c++/8/bits/basic_string.h **** 	else if (_Alloc_traits::_S_propagate_on_move_assign()
 755:/usr/include/c++/8/bits/basic_string.h **** 	    || _Alloc_traits::_S_always_equal()
 756:/usr/include/c++/8/bits/basic_string.h **** 	    || _M_get_allocator() == __str._M_get_allocator())
 757:/usr/include/c++/8/bits/basic_string.h **** 	  {
 758:/usr/include/c++/8/bits/basic_string.h **** 	    // Just move the allocated pointer, our allocator can free it.
 759:/usr/include/c++/8/bits/basic_string.h **** 	    pointer __data = nullptr;
 760:/usr/include/c++/8/bits/basic_string.h **** 	    size_type __capacity;
 761:/usr/include/c++/8/bits/basic_string.h **** 	    if (!_M_is_local())
 762:/usr/include/c++/8/bits/basic_string.h **** 	      {
 763:/usr/include/c++/8/bits/basic_string.h **** 		if (_Alloc_traits::_S_always_equal())
 764:/usr/include/c++/8/bits/basic_string.h **** 		  {
 765:/usr/include/c++/8/bits/basic_string.h **** 		    // __str can reuse our existing storage.
 766:/usr/include/c++/8/bits/basic_string.h **** 		    __data = _M_data();
 767:/usr/include/c++/8/bits/basic_string.h **** 		    __capacity = _M_allocated_capacity;
 768:/usr/include/c++/8/bits/basic_string.h **** 		  }
 769:/usr/include/c++/8/bits/basic_string.h **** 		else // __str can't use it, so free it.
 770:/usr/include/c++/8/bits/basic_string.h **** 		  _M_destroy(_M_allocated_capacity);
 771:/usr/include/c++/8/bits/basic_string.h **** 	      }
 772:/usr/include/c++/8/bits/basic_string.h **** 
 773:/usr/include/c++/8/bits/basic_string.h **** 	    _M_data(__str._M_data());
 774:/usr/include/c++/8/bits/basic_string.h **** 	    _M_length(__str.length());
 775:/usr/include/c++/8/bits/basic_string.h **** 	    _M_capacity(__str._M_allocated_capacity);
 776:/usr/include/c++/8/bits/basic_string.h **** 	    if (__data)
 777:/usr/include/c++/8/bits/basic_string.h **** 	      {
 778:/usr/include/c++/8/bits/basic_string.h **** 		__str._M_data(__data);
 779:/usr/include/c++/8/bits/basic_string.h **** 		__str._M_capacity(__capacity);
 780:/usr/include/c++/8/bits/basic_string.h **** 	      }
 781:/usr/include/c++/8/bits/basic_string.h **** 	    else
 782:/usr/include/c++/8/bits/basic_string.h **** 	      __str._M_data(__str._M_local_buf);
 783:/usr/include/c++/8/bits/basic_string.h **** 	  }
 784:/usr/include/c++/8/bits/basic_string.h **** 	else // Need to do a deep copy
 785:/usr/include/c++/8/bits/basic_string.h **** 	  assign(__str);
 786:/usr/include/c++/8/bits/basic_string.h **** 	__str.clear();
 787:/usr/include/c++/8/bits/basic_string.h **** 	return *this;
 788:/usr/include/c++/8/bits/basic_string.h ****       }
 789:/usr/include/c++/8/bits/basic_string.h **** 
 790:/usr/include/c++/8/bits/basic_string.h ****       /**
 791:/usr/include/c++/8/bits/basic_string.h ****        *  @brief  Set value to string constructed from initializer %list.
 792:/usr/include/c++/8/bits/basic_string.h ****        *  @param  __l  std::initializer_list.
 793:/usr/include/c++/8/bits/basic_string.h ****        */
 794:/usr/include/c++/8/bits/basic_string.h ****       basic_string&
 795:/usr/include/c++/8/bits/basic_string.h ****       operator=(initializer_list<_CharT> __l)
 796:/usr/include/c++/8/bits/basic_string.h ****       {
 797:/usr/include/c++/8/bits/basic_string.h **** 	this->assign(__l.begin(), __l.size());
 798:/usr/include/c++/8/bits/basic_string.h **** 	return *this;
 799:/usr/include/c++/8/bits/basic_string.h ****       }
 800:/usr/include/c++/8/bits/basic_string.h **** #endif // C++11
 801:/usr/include/c++/8/bits/basic_string.h **** 
 802:/usr/include/c++/8/bits/basic_string.h **** #if __cplusplus > 201402L
 803:/usr/include/c++/8/bits/basic_string.h ****       /**
 804:/usr/include/c++/8/bits/basic_string.h ****        *  @brief  Set value to string constructed from a string_view.
 805:/usr/include/c++/8/bits/basic_string.h ****        *  @param  __svt  An object convertible to string_view.
 806:/usr/include/c++/8/bits/basic_string.h ****        */
 807:/usr/include/c++/8/bits/basic_string.h ****      template<typename _Tp>
 808:/usr/include/c++/8/bits/basic_string.h ****        _If_sv<_Tp, basic_string&>
 809:/usr/include/c++/8/bits/basic_string.h ****        operator=(const _Tp& __svt)
 810:/usr/include/c++/8/bits/basic_string.h ****        { return this->assign(__svt); }
 811:/usr/include/c++/8/bits/basic_string.h **** 
 812:/usr/include/c++/8/bits/basic_string.h ****       /**
 813:/usr/include/c++/8/bits/basic_string.h ****        *  @brief  Convert to a string_view.
 814:/usr/include/c++/8/bits/basic_string.h ****        *  @return A string_view.
 815:/usr/include/c++/8/bits/basic_string.h ****        */
 816:/usr/include/c++/8/bits/basic_string.h ****       operator __sv_type() const noexcept
 817:/usr/include/c++/8/bits/basic_string.h ****       { return __sv_type(data(), size()); }
 818:/usr/include/c++/8/bits/basic_string.h **** #endif // C++17
 819:/usr/include/c++/8/bits/basic_string.h **** 
 820:/usr/include/c++/8/bits/basic_string.h ****       // Iterators:
 821:/usr/include/c++/8/bits/basic_string.h ****       /**
 822:/usr/include/c++/8/bits/basic_string.h ****        *  Returns a read/write iterator that points to the first character in
 823:/usr/include/c++/8/bits/basic_string.h ****        *  the %string.
 824:/usr/include/c++/8/bits/basic_string.h ****        */
 825:/usr/include/c++/8/bits/basic_string.h ****       iterator
 826:/usr/include/c++/8/bits/basic_string.h ****       begin() _GLIBCXX_NOEXCEPT
 827:/usr/include/c++/8/bits/basic_string.h ****       { return iterator(_M_data()); }
 828:/usr/include/c++/8/bits/basic_string.h **** 
 829:/usr/include/c++/8/bits/basic_string.h ****       /**
 830:/usr/include/c++/8/bits/basic_string.h ****        *  Returns a read-only (constant) iterator that points to the first
 831:/usr/include/c++/8/bits/basic_string.h ****        *  character in the %string.
 832:/usr/include/c++/8/bits/basic_string.h ****        */
 833:/usr/include/c++/8/bits/basic_string.h ****       const_iterator
 834:/usr/include/c++/8/bits/basic_string.h ****       begin() const _GLIBCXX_NOEXCEPT
 835:/usr/include/c++/8/bits/basic_string.h ****       { return const_iterator(_M_data()); }
 836:/usr/include/c++/8/bits/basic_string.h **** 
 837:/usr/include/c++/8/bits/basic_string.h ****       /**
 838:/usr/include/c++/8/bits/basic_string.h ****        *  Returns a read/write iterator that points one past the last
 839:/usr/include/c++/8/bits/basic_string.h ****        *  character in the %string.
 840:/usr/include/c++/8/bits/basic_string.h ****        */
 841:/usr/include/c++/8/bits/basic_string.h ****       iterator
 842:/usr/include/c++/8/bits/basic_string.h ****       end() _GLIBCXX_NOEXCEPT
 843:/usr/include/c++/8/bits/basic_string.h ****       { return iterator(_M_data() + this->size()); }
 844:/usr/include/c++/8/bits/basic_string.h **** 
 845:/usr/include/c++/8/bits/basic_string.h ****       /**
 846:/usr/include/c++/8/bits/basic_string.h ****        *  Returns a read-only (constant) iterator that points one past the
 847:/usr/include/c++/8/bits/basic_string.h ****        *  last character in the %string.
 848:/usr/include/c++/8/bits/basic_string.h ****        */
 849:/usr/include/c++/8/bits/basic_string.h ****       const_iterator
 850:/usr/include/c++/8/bits/basic_string.h ****       end() const _GLIBCXX_NOEXCEPT
 851:/usr/include/c++/8/bits/basic_string.h ****       { return const_iterator(_M_data() + this->size()); }
 852:/usr/include/c++/8/bits/basic_string.h **** 
 853:/usr/include/c++/8/bits/basic_string.h ****       /**
 854:/usr/include/c++/8/bits/basic_string.h ****        *  Returns a read/write reverse iterator that points to the last
 855:/usr/include/c++/8/bits/basic_string.h ****        *  character in the %string.  Iteration is done in reverse element
 856:/usr/include/c++/8/bits/basic_string.h ****        *  order.
 857:/usr/include/c++/8/bits/basic_string.h ****        */
 858:/usr/include/c++/8/bits/basic_string.h ****       reverse_iterator
 859:/usr/include/c++/8/bits/basic_string.h ****       rbegin() _GLIBCXX_NOEXCEPT
 860:/usr/include/c++/8/bits/basic_string.h ****       { return reverse_iterator(this->end()); }
 861:/usr/include/c++/8/bits/basic_string.h **** 
 862:/usr/include/c++/8/bits/basic_string.h ****       /**
 863:/usr/include/c++/8/bits/basic_string.h ****        *  Returns a read-only (constant) reverse iterator that points
 864:/usr/include/c++/8/bits/basic_string.h ****        *  to the last character in the %string.  Iteration is done in
 865:/usr/include/c++/8/bits/basic_string.h ****        *  reverse element order.
 866:/usr/include/c++/8/bits/basic_string.h ****        */
 867:/usr/include/c++/8/bits/basic_string.h ****       const_reverse_iterator
 868:/usr/include/c++/8/bits/basic_string.h ****       rbegin() const _GLIBCXX_NOEXCEPT
 869:/usr/include/c++/8/bits/basic_string.h ****       { return const_reverse_iterator(this->end()); }
 870:/usr/include/c++/8/bits/basic_string.h **** 
 871:/usr/include/c++/8/bits/basic_string.h ****       /**
 872:/usr/include/c++/8/bits/basic_string.h ****        *  Returns a read/write reverse iterator that points to one before the
 873:/usr/include/c++/8/bits/basic_string.h ****        *  first character in the %string.  Iteration is done in reverse
 874:/usr/include/c++/8/bits/basic_string.h ****        *  element order.
 875:/usr/include/c++/8/bits/basic_string.h ****        */
 876:/usr/include/c++/8/bits/basic_string.h ****       reverse_iterator
 877:/usr/include/c++/8/bits/basic_string.h ****       rend() _GLIBCXX_NOEXCEPT
 878:/usr/include/c++/8/bits/basic_string.h ****       { return reverse_iterator(this->begin()); }
 879:/usr/include/c++/8/bits/basic_string.h **** 
 880:/usr/include/c++/8/bits/basic_string.h ****       /**
 881:/usr/include/c++/8/bits/basic_string.h ****        *  Returns a read-only (constant) reverse iterator that points
 882:/usr/include/c++/8/bits/basic_string.h ****        *  to one before the first character in the %string.  Iteration
 883:/usr/include/c++/8/bits/basic_string.h ****        *  is done in reverse element order.
 884:/usr/include/c++/8/bits/basic_string.h ****        */
 885:/usr/include/c++/8/bits/basic_string.h ****       const_reverse_iterator
 886:/usr/include/c++/8/bits/basic_string.h ****       rend() const _GLIBCXX_NOEXCEPT
 887:/usr/include/c++/8/bits/basic_string.h ****       { return const_reverse_iterator(this->begin()); }
 888:/usr/include/c++/8/bits/basic_string.h **** 
 889:/usr/include/c++/8/bits/basic_string.h **** #if __cplusplus >= 201103L
 890:/usr/include/c++/8/bits/basic_string.h ****       /**
 891:/usr/include/c++/8/bits/basic_string.h ****        *  Returns a read-only (constant) iterator that points to the first
 892:/usr/include/c++/8/bits/basic_string.h ****        *  character in the %string.
 893:/usr/include/c++/8/bits/basic_string.h ****        */
 894:/usr/include/c++/8/bits/basic_string.h ****       const_iterator
 895:/usr/include/c++/8/bits/basic_string.h ****       cbegin() const noexcept
 896:/usr/include/c++/8/bits/basic_string.h ****       { return const_iterator(this->_M_data()); }
 897:/usr/include/c++/8/bits/basic_string.h **** 
 898:/usr/include/c++/8/bits/basic_string.h ****       /**
 899:/usr/include/c++/8/bits/basic_string.h ****        *  Returns a read-only (constant) iterator that points one past the
 900:/usr/include/c++/8/bits/basic_string.h ****        *  last character in the %string.
 901:/usr/include/c++/8/bits/basic_string.h ****        */
 902:/usr/include/c++/8/bits/basic_string.h ****       const_iterator
 903:/usr/include/c++/8/bits/basic_string.h ****       cend() const noexcept
 904:/usr/include/c++/8/bits/basic_string.h ****       { return const_iterator(this->_M_data() + this->size()); }
 905:/usr/include/c++/8/bits/basic_string.h **** 
 906:/usr/include/c++/8/bits/basic_string.h ****       /**
 907:/usr/include/c++/8/bits/basic_string.h ****        *  Returns a read-only (constant) reverse iterator that points
 908:/usr/include/c++/8/bits/basic_string.h ****        *  to the last character in the %string.  Iteration is done in
 909:/usr/include/c++/8/bits/basic_string.h ****        *  reverse element order.
 910:/usr/include/c++/8/bits/basic_string.h ****        */
 911:/usr/include/c++/8/bits/basic_string.h ****       const_reverse_iterator
 912:/usr/include/c++/8/bits/basic_string.h ****       crbegin() const noexcept
 913:/usr/include/c++/8/bits/basic_string.h ****       { return const_reverse_iterator(this->end()); }
 914:/usr/include/c++/8/bits/basic_string.h **** 
 915:/usr/include/c++/8/bits/basic_string.h ****       /**
 916:/usr/include/c++/8/bits/basic_string.h ****        *  Returns a read-only (constant) reverse iterator that points
 917:/usr/include/c++/8/bits/basic_string.h ****        *  to one before the first character in the %string.  Iteration
 918:/usr/include/c++/8/bits/basic_string.h ****        *  is done in reverse element order.
 919:/usr/include/c++/8/bits/basic_string.h ****        */
 920:/usr/include/c++/8/bits/basic_string.h ****       const_reverse_iterator
 921:/usr/include/c++/8/bits/basic_string.h ****       crend() const noexcept
 922:/usr/include/c++/8/bits/basic_string.h ****       { return const_reverse_iterator(this->begin()); }
 923:/usr/include/c++/8/bits/basic_string.h **** #endif
 924:/usr/include/c++/8/bits/basic_string.h **** 
 925:/usr/include/c++/8/bits/basic_string.h ****     public:
 926:/usr/include/c++/8/bits/basic_string.h ****       // Capacity:
 927:/usr/include/c++/8/bits/basic_string.h ****       ///  Returns the number of characters in the string, not including any
 928:/usr/include/c++/8/bits/basic_string.h ****       ///  null-termination.
 929:/usr/include/c++/8/bits/basic_string.h ****       size_type
 930:/usr/include/c++/8/bits/basic_string.h ****       size() const _GLIBCXX_NOEXCEPT
 931:/usr/include/c++/8/bits/basic_string.h ****       { return _M_string_length; }
 932:/usr/include/c++/8/bits/basic_string.h **** 
 933:/usr/include/c++/8/bits/basic_string.h ****       ///  Returns the number of characters in the string, not including any
 934:/usr/include/c++/8/bits/basic_string.h ****       ///  null-termination.
 935:/usr/include/c++/8/bits/basic_string.h ****       size_type
 936:/usr/include/c++/8/bits/basic_string.h ****       length() const _GLIBCXX_NOEXCEPT
 937:/usr/include/c++/8/bits/basic_string.h ****       { return _M_string_length; }
 938:/usr/include/c++/8/bits/basic_string.h **** 
 939:/usr/include/c++/8/bits/basic_string.h ****       ///  Returns the size() of the largest possible %string.
 940:/usr/include/c++/8/bits/basic_string.h ****       size_type
 941:/usr/include/c++/8/bits/basic_string.h ****       max_size() const _GLIBCXX_NOEXCEPT
 942:/usr/include/c++/8/bits/basic_string.h ****       { return (_Alloc_traits::max_size(_M_get_allocator()) - 1) / 2; }
 943:/usr/include/c++/8/bits/basic_string.h **** 
 944:/usr/include/c++/8/bits/basic_string.h ****       /**
 945:/usr/include/c++/8/bits/basic_string.h ****        *  @brief  Resizes the %string to the specified number of characters.
 946:/usr/include/c++/8/bits/basic_string.h ****        *  @param  __n  Number of characters the %string should contain.
 947:/usr/include/c++/8/bits/basic_string.h ****        *  @param  __c  Character to fill any new elements.
 948:/usr/include/c++/8/bits/basic_string.h ****        *
 949:/usr/include/c++/8/bits/basic_string.h ****        *  This function will %resize the %string to the specified
 950:/usr/include/c++/8/bits/basic_string.h ****        *  number of characters.  If the number is smaller than the
 951:/usr/include/c++/8/bits/basic_string.h ****        *  %string's current size the %string is truncated, otherwise
 952:/usr/include/c++/8/bits/basic_string.h ****        *  the %string is extended and new elements are %set to @a __c.
 953:/usr/include/c++/8/bits/basic_string.h ****        */
 954:/usr/include/c++/8/bits/basic_string.h ****       void
 955:/usr/include/c++/8/bits/basic_string.h ****       resize(size_type __n, _CharT __c);
 956:/usr/include/c++/8/bits/basic_string.h **** 
 957:/usr/include/c++/8/bits/basic_string.h ****       /**
 958:/usr/include/c++/8/bits/basic_string.h ****        *  @brief  Resizes the %string to the specified number of characters.
 959:/usr/include/c++/8/bits/basic_string.h ****        *  @param  __n  Number of characters the %string should contain.
 960:/usr/include/c++/8/bits/basic_string.h ****        *
 961:/usr/include/c++/8/bits/basic_string.h ****        *  This function will resize the %string to the specified length.  If
 962:/usr/include/c++/8/bits/basic_string.h ****        *  the new size is smaller than the %string's current size the %string
 963:/usr/include/c++/8/bits/basic_string.h ****        *  is truncated, otherwise the %string is extended and new characters
 964:/usr/include/c++/8/bits/basic_string.h ****        *  are default-constructed.  For basic types such as char, this means
 965:/usr/include/c++/8/bits/basic_string.h ****        *  setting them to 0.
 966:/usr/include/c++/8/bits/basic_string.h ****        */
 967:/usr/include/c++/8/bits/basic_string.h ****       void
 968:/usr/include/c++/8/bits/basic_string.h ****       resize(size_type __n)
 969:/usr/include/c++/8/bits/basic_string.h ****       { this->resize(__n, _CharT()); }
 970:/usr/include/c++/8/bits/basic_string.h **** 
 971:/usr/include/c++/8/bits/basic_string.h **** #if __cplusplus >= 201103L
 972:/usr/include/c++/8/bits/basic_string.h ****       ///  A non-binding request to reduce capacity() to size().
 973:/usr/include/c++/8/bits/basic_string.h ****       void
 974:/usr/include/c++/8/bits/basic_string.h ****       shrink_to_fit() noexcept
 975:/usr/include/c++/8/bits/basic_string.h ****       {
 976:/usr/include/c++/8/bits/basic_string.h **** #if __cpp_exceptions
 977:/usr/include/c++/8/bits/basic_string.h **** 	if (capacity() > size())
 978:/usr/include/c++/8/bits/basic_string.h **** 	  {
 979:/usr/include/c++/8/bits/basic_string.h **** 	    try
 980:/usr/include/c++/8/bits/basic_string.h **** 	      { reserve(0); }
 981:/usr/include/c++/8/bits/basic_string.h **** 	    catch(...)
 982:/usr/include/c++/8/bits/basic_string.h **** 	      { }
 983:/usr/include/c++/8/bits/basic_string.h **** 	  }
 984:/usr/include/c++/8/bits/basic_string.h **** #endif
 985:/usr/include/c++/8/bits/basic_string.h ****       }
 986:/usr/include/c++/8/bits/basic_string.h **** #endif
 987:/usr/include/c++/8/bits/basic_string.h **** 
 988:/usr/include/c++/8/bits/basic_string.h ****       /**
 989:/usr/include/c++/8/bits/basic_string.h ****        *  Returns the total number of characters that the %string can hold
 990:/usr/include/c++/8/bits/basic_string.h ****        *  before needing to allocate more memory.
 991:/usr/include/c++/8/bits/basic_string.h ****        */
 992:/usr/include/c++/8/bits/basic_string.h ****       size_type
 993:/usr/include/c++/8/bits/basic_string.h ****       capacity() const _GLIBCXX_NOEXCEPT
 994:/usr/include/c++/8/bits/basic_string.h ****       {
 995:/usr/include/c++/8/bits/basic_string.h **** 	return _M_is_local() ? size_type(_S_local_capacity)
 996:/usr/include/c++/8/bits/basic_string.h **** 	                     : _M_allocated_capacity;
 997:/usr/include/c++/8/bits/basic_string.h ****       }
 998:/usr/include/c++/8/bits/basic_string.h **** 
 999:/usr/include/c++/8/bits/basic_string.h ****       /**
1000:/usr/include/c++/8/bits/basic_string.h ****        *  @brief  Attempt to preallocate enough memory for specified number of
1001:/usr/include/c++/8/bits/basic_string.h ****        *          characters.
1002:/usr/include/c++/8/bits/basic_string.h ****        *  @param  __res_arg  Number of characters required.
1003:/usr/include/c++/8/bits/basic_string.h ****        *  @throw  std::length_error  If @a __res_arg exceeds @c max_size().
1004:/usr/include/c++/8/bits/basic_string.h ****        *
1005:/usr/include/c++/8/bits/basic_string.h ****        *  This function attempts to reserve enough memory for the
1006:/usr/include/c++/8/bits/basic_string.h ****        *  %string to hold the specified number of characters.  If the
1007:/usr/include/c++/8/bits/basic_string.h ****        *  number requested is more than max_size(), length_error is
1008:/usr/include/c++/8/bits/basic_string.h ****        *  thrown.
1009:/usr/include/c++/8/bits/basic_string.h ****        *
1010:/usr/include/c++/8/bits/basic_string.h ****        *  The advantage of this function is that if optimal code is a
1011:/usr/include/c++/8/bits/basic_string.h ****        *  necessity and the user can determine the string length that will be
1012:/usr/include/c++/8/bits/basic_string.h ****        *  required, the user can reserve the memory in %advance, and thus
1013:/usr/include/c++/8/bits/basic_string.h ****        *  prevent a possible reallocation of memory and copying of %string
1014:/usr/include/c++/8/bits/basic_string.h ****        *  data.
1015:/usr/include/c++/8/bits/basic_string.h ****        */
1016:/usr/include/c++/8/bits/basic_string.h ****       void
1017:/usr/include/c++/8/bits/basic_string.h ****       reserve(size_type __res_arg = 0);
1018:/usr/include/c++/8/bits/basic_string.h **** 
1019:/usr/include/c++/8/bits/basic_string.h ****       /**
1020:/usr/include/c++/8/bits/basic_string.h ****        *  Erases the string, making it empty.
1021:/usr/include/c++/8/bits/basic_string.h ****        */
1022:/usr/include/c++/8/bits/basic_string.h ****       void
1023:/usr/include/c++/8/bits/basic_string.h ****       clear() _GLIBCXX_NOEXCEPT
1024:/usr/include/c++/8/bits/basic_string.h ****       { _M_set_length(0); }
1025:/usr/include/c++/8/bits/basic_string.h **** 
1026:/usr/include/c++/8/bits/basic_string.h ****       /**
1027:/usr/include/c++/8/bits/basic_string.h ****        *  Returns true if the %string is empty.  Equivalent to 
1028:/usr/include/c++/8/bits/basic_string.h ****        *  <code>*this == ""</code>.
1029:/usr/include/c++/8/bits/basic_string.h ****        */
1030:/usr/include/c++/8/bits/basic_string.h ****       bool
1031:/usr/include/c++/8/bits/basic_string.h ****       empty() const _GLIBCXX_NOEXCEPT
1032:/usr/include/c++/8/bits/basic_string.h ****       { return this->size() == 0; }
1033:/usr/include/c++/8/bits/basic_string.h **** 
1034:/usr/include/c++/8/bits/basic_string.h ****       // Element access:
1035:/usr/include/c++/8/bits/basic_string.h ****       /**
1036:/usr/include/c++/8/bits/basic_string.h ****        *  @brief  Subscript access to the data contained in the %string.
1037:/usr/include/c++/8/bits/basic_string.h ****        *  @param  __pos  The index of the character to access.
1038:/usr/include/c++/8/bits/basic_string.h ****        *  @return  Read-only (constant) reference to the character.
1039:/usr/include/c++/8/bits/basic_string.h ****        *
1040:/usr/include/c++/8/bits/basic_string.h ****        *  This operator allows for easy, array-style, data access.
1041:/usr/include/c++/8/bits/basic_string.h ****        *  Note that data access with this operator is unchecked and
1042:/usr/include/c++/8/bits/basic_string.h ****        *  out_of_range lookups are not defined. (For checked lookups
1043:/usr/include/c++/8/bits/basic_string.h ****        *  see at().)
1044:/usr/include/c++/8/bits/basic_string.h ****        */
1045:/usr/include/c++/8/bits/basic_string.h ****       const_reference
1046:/usr/include/c++/8/bits/basic_string.h ****       operator[] (size_type __pos) const _GLIBCXX_NOEXCEPT
1047:/usr/include/c++/8/bits/basic_string.h ****       {
1048:/usr/include/c++/8/bits/basic_string.h **** 	__glibcxx_assert(__pos <= size());
1049:/usr/include/c++/8/bits/basic_string.h **** 	return _M_data()[__pos];
1050:/usr/include/c++/8/bits/basic_string.h ****       }
1051:/usr/include/c++/8/bits/basic_string.h **** 
1052:/usr/include/c++/8/bits/basic_string.h ****       /**
1053:/usr/include/c++/8/bits/basic_string.h ****        *  @brief  Subscript access to the data contained in the %string.
1054:/usr/include/c++/8/bits/basic_string.h ****        *  @param  __pos  The index of the character to access.
1055:/usr/include/c++/8/bits/basic_string.h ****        *  @return  Read/write reference to the character.
1056:/usr/include/c++/8/bits/basic_string.h ****        *
1057:/usr/include/c++/8/bits/basic_string.h ****        *  This operator allows for easy, array-style, data access.
1058:/usr/include/c++/8/bits/basic_string.h ****        *  Note that data access with this operator is unchecked and
1059:/usr/include/c++/8/bits/basic_string.h ****        *  out_of_range lookups are not defined. (For checked lookups
1060:/usr/include/c++/8/bits/basic_string.h ****        *  see at().)
1061:/usr/include/c++/8/bits/basic_string.h ****        */
1062:/usr/include/c++/8/bits/basic_string.h ****       reference
1063:/usr/include/c++/8/bits/basic_string.h ****       operator[](size_type __pos)
1064:/usr/include/c++/8/bits/basic_string.h ****       {
1065:/usr/include/c++/8/bits/basic_string.h ****         // Allow pos == size() both in C++98 mode, as v3 extension,
1066:/usr/include/c++/8/bits/basic_string.h **** 	// and in C++11 mode.
1067:/usr/include/c++/8/bits/basic_string.h **** 	__glibcxx_assert(__pos <= size());
1068:/usr/include/c++/8/bits/basic_string.h ****         // In pedantic mode be strict in C++98 mode.
1069:/usr/include/c++/8/bits/basic_string.h **** 	_GLIBCXX_DEBUG_PEDASSERT(__cplusplus >= 201103L || __pos < size());
1070:/usr/include/c++/8/bits/basic_string.h **** 	return _M_data()[__pos];
1071:/usr/include/c++/8/bits/basic_string.h ****       }
1072:/usr/include/c++/8/bits/basic_string.h **** 
1073:/usr/include/c++/8/bits/basic_string.h ****       /**
1074:/usr/include/c++/8/bits/basic_string.h ****        *  @brief  Provides access to the data contained in the %string.
1075:/usr/include/c++/8/bits/basic_string.h ****        *  @param __n The index of the character to access.
1076:/usr/include/c++/8/bits/basic_string.h ****        *  @return  Read-only (const) reference to the character.
1077:/usr/include/c++/8/bits/basic_string.h ****        *  @throw  std::out_of_range  If @a n is an invalid index.
1078:/usr/include/c++/8/bits/basic_string.h ****        *
1079:/usr/include/c++/8/bits/basic_string.h ****        *  This function provides for safer data access.  The parameter is
1080:/usr/include/c++/8/bits/basic_string.h ****        *  first checked that it is in the range of the string.  The function
1081:/usr/include/c++/8/bits/basic_string.h ****        *  throws out_of_range if the check fails.
1082:/usr/include/c++/8/bits/basic_string.h ****        */
1083:/usr/include/c++/8/bits/basic_string.h ****       const_reference
1084:/usr/include/c++/8/bits/basic_string.h ****       at(size_type __n) const
1085:/usr/include/c++/8/bits/basic_string.h ****       {
1086:/usr/include/c++/8/bits/basic_string.h **** 	if (__n >= this->size())
1087:/usr/include/c++/8/bits/basic_string.h **** 	  __throw_out_of_range_fmt(__N("basic_string::at: __n "
1088:/usr/include/c++/8/bits/basic_string.h **** 				       "(which is %zu) >= this->size() "
1089:/usr/include/c++/8/bits/basic_string.h **** 				       "(which is %zu)"),
1090:/usr/include/c++/8/bits/basic_string.h **** 				   __n, this->size());
1091:/usr/include/c++/8/bits/basic_string.h **** 	return _M_data()[__n];
1092:/usr/include/c++/8/bits/basic_string.h ****       }
1093:/usr/include/c++/8/bits/basic_string.h **** 
1094:/usr/include/c++/8/bits/basic_string.h ****       /**
1095:/usr/include/c++/8/bits/basic_string.h ****        *  @brief  Provides access to the data contained in the %string.
1096:/usr/include/c++/8/bits/basic_string.h ****        *  @param __n The index of the character to access.
1097:/usr/include/c++/8/bits/basic_string.h ****        *  @return  Read/write reference to the character.
1098:/usr/include/c++/8/bits/basic_string.h ****        *  @throw  std::out_of_range  If @a n is an invalid index.
1099:/usr/include/c++/8/bits/basic_string.h ****        *
1100:/usr/include/c++/8/bits/basic_string.h ****        *  This function provides for safer data access.  The parameter is
1101:/usr/include/c++/8/bits/basic_string.h ****        *  first checked that it is in the range of the string.  The function
1102:/usr/include/c++/8/bits/basic_string.h ****        *  throws out_of_range if the check fails.
1103:/usr/include/c++/8/bits/basic_string.h ****        */
1104:/usr/include/c++/8/bits/basic_string.h ****       reference
1105:/usr/include/c++/8/bits/basic_string.h ****       at(size_type __n)
1106:/usr/include/c++/8/bits/basic_string.h ****       {
1107:/usr/include/c++/8/bits/basic_string.h **** 	if (__n >= size())
1108:/usr/include/c++/8/bits/basic_string.h **** 	  __throw_out_of_range_fmt(__N("basic_string::at: __n "
1109:/usr/include/c++/8/bits/basic_string.h **** 				       "(which is %zu) >= this->size() "
1110:/usr/include/c++/8/bits/basic_string.h **** 				       "(which is %zu)"),
1111:/usr/include/c++/8/bits/basic_string.h **** 				   __n, this->size());
1112:/usr/include/c++/8/bits/basic_string.h **** 	return _M_data()[__n];
1113:/usr/include/c++/8/bits/basic_string.h ****       }
1114:/usr/include/c++/8/bits/basic_string.h **** 
1115:/usr/include/c++/8/bits/basic_string.h **** #if __cplusplus >= 201103L
1116:/usr/include/c++/8/bits/basic_string.h ****       /**
1117:/usr/include/c++/8/bits/basic_string.h ****        *  Returns a read/write reference to the data at the first
1118:/usr/include/c++/8/bits/basic_string.h ****        *  element of the %string.
1119:/usr/include/c++/8/bits/basic_string.h ****        */
1120:/usr/include/c++/8/bits/basic_string.h ****       reference
1121:/usr/include/c++/8/bits/basic_string.h ****       front() noexcept
1122:/usr/include/c++/8/bits/basic_string.h ****       {
1123:/usr/include/c++/8/bits/basic_string.h **** 	__glibcxx_assert(!empty());
1124:/usr/include/c++/8/bits/basic_string.h **** 	return operator[](0);
1125:/usr/include/c++/8/bits/basic_string.h ****       }
1126:/usr/include/c++/8/bits/basic_string.h **** 
1127:/usr/include/c++/8/bits/basic_string.h ****       /**
1128:/usr/include/c++/8/bits/basic_string.h ****        *  Returns a read-only (constant) reference to the data at the first
1129:/usr/include/c++/8/bits/basic_string.h ****        *  element of the %string.
1130:/usr/include/c++/8/bits/basic_string.h ****        */
1131:/usr/include/c++/8/bits/basic_string.h ****       const_reference
1132:/usr/include/c++/8/bits/basic_string.h ****       front() const noexcept
1133:/usr/include/c++/8/bits/basic_string.h ****       {
1134:/usr/include/c++/8/bits/basic_string.h **** 	__glibcxx_assert(!empty());
1135:/usr/include/c++/8/bits/basic_string.h **** 	return operator[](0);
1136:/usr/include/c++/8/bits/basic_string.h ****       }
1137:/usr/include/c++/8/bits/basic_string.h **** 
1138:/usr/include/c++/8/bits/basic_string.h ****       /**
1139:/usr/include/c++/8/bits/basic_string.h ****        *  Returns a read/write reference to the data at the last
1140:/usr/include/c++/8/bits/basic_string.h ****        *  element of the %string.
1141:/usr/include/c++/8/bits/basic_string.h ****        */
1142:/usr/include/c++/8/bits/basic_string.h ****       reference
1143:/usr/include/c++/8/bits/basic_string.h ****       back() noexcept
1144:/usr/include/c++/8/bits/basic_string.h ****       {
1145:/usr/include/c++/8/bits/basic_string.h **** 	__glibcxx_assert(!empty());
1146:/usr/include/c++/8/bits/basic_string.h **** 	return operator[](this->size() - 1);
1147:/usr/include/c++/8/bits/basic_string.h ****       }
1148:/usr/include/c++/8/bits/basic_string.h **** 
1149:/usr/include/c++/8/bits/basic_string.h ****       /**
1150:/usr/include/c++/8/bits/basic_string.h ****        *  Returns a read-only (constant) reference to the data at the
1151:/usr/include/c++/8/bits/basic_string.h ****        *  last element of the %string.
1152:/usr/include/c++/8/bits/basic_string.h ****        */
1153:/usr/include/c++/8/bits/basic_string.h ****       const_reference
1154:/usr/include/c++/8/bits/basic_string.h ****       back() const noexcept
1155:/usr/include/c++/8/bits/basic_string.h ****       {
1156:/usr/include/c++/8/bits/basic_string.h **** 	__glibcxx_assert(!empty());
1157:/usr/include/c++/8/bits/basic_string.h **** 	return operator[](this->size() - 1);
1158:/usr/include/c++/8/bits/basic_string.h ****       }
1159:/usr/include/c++/8/bits/basic_string.h **** #endif
1160:/usr/include/c++/8/bits/basic_string.h **** 
1161:/usr/include/c++/8/bits/basic_string.h ****       // Modifiers:
1162:/usr/include/c++/8/bits/basic_string.h ****       /**
1163:/usr/include/c++/8/bits/basic_string.h ****        *  @brief  Append a string to this string.
1164:/usr/include/c++/8/bits/basic_string.h ****        *  @param __str  The string to append.
1165:/usr/include/c++/8/bits/basic_string.h ****        *  @return  Reference to this string.
1166:/usr/include/c++/8/bits/basic_string.h ****        */
1167:/usr/include/c++/8/bits/basic_string.h ****       basic_string&
1168:/usr/include/c++/8/bits/basic_string.h ****       operator+=(const basic_string& __str)
1169:/usr/include/c++/8/bits/basic_string.h ****       { return this->append(__str); }
1170:/usr/include/c++/8/bits/basic_string.h **** 
1171:/usr/include/c++/8/bits/basic_string.h ****       /**
1172:/usr/include/c++/8/bits/basic_string.h ****        *  @brief  Append a C string.
1173:/usr/include/c++/8/bits/basic_string.h ****        *  @param __s  The C string to append.
1174:/usr/include/c++/8/bits/basic_string.h ****        *  @return  Reference to this string.
1175:/usr/include/c++/8/bits/basic_string.h ****        */
1176:/usr/include/c++/8/bits/basic_string.h ****       basic_string&
1177:/usr/include/c++/8/bits/basic_string.h ****       operator+=(const _CharT* __s)
1178:/usr/include/c++/8/bits/basic_string.h ****       { return this->append(__s); }
1179:/usr/include/c++/8/bits/basic_string.h **** 
1180:/usr/include/c++/8/bits/basic_string.h ****       /**
1181:/usr/include/c++/8/bits/basic_string.h ****        *  @brief  Append a character.
1182:/usr/include/c++/8/bits/basic_string.h ****        *  @param __c  The character to append.
1183:/usr/include/c++/8/bits/basic_string.h ****        *  @return  Reference to this string.
1184:/usr/include/c++/8/bits/basic_string.h ****        */
1185:/usr/include/c++/8/bits/basic_string.h ****       basic_string&
1186:/usr/include/c++/8/bits/basic_string.h ****       operator+=(_CharT __c)
1187:/usr/include/c++/8/bits/basic_string.h ****       {
1188:/usr/include/c++/8/bits/basic_string.h **** 	this->push_back(__c);
1189:/usr/include/c++/8/bits/basic_string.h **** 	return *this;
1190:/usr/include/c++/8/bits/basic_string.h ****       }
1191:/usr/include/c++/8/bits/basic_string.h **** 
1192:/usr/include/c++/8/bits/basic_string.h **** #if __cplusplus >= 201103L
1193:/usr/include/c++/8/bits/basic_string.h ****       /**
1194:/usr/include/c++/8/bits/basic_string.h ****        *  @brief  Append an initializer_list of characters.
1195:/usr/include/c++/8/bits/basic_string.h ****        *  @param __l  The initializer_list of characters to be appended.
1196:/usr/include/c++/8/bits/basic_string.h ****        *  @return  Reference to this string.
1197:/usr/include/c++/8/bits/basic_string.h ****        */
1198:/usr/include/c++/8/bits/basic_string.h ****       basic_string&
1199:/usr/include/c++/8/bits/basic_string.h ****       operator+=(initializer_list<_CharT> __l)
1200:/usr/include/c++/8/bits/basic_string.h ****       { return this->append(__l.begin(), __l.size()); }
1201:/usr/include/c++/8/bits/basic_string.h **** #endif // C++11
1202:/usr/include/c++/8/bits/basic_string.h **** 
1203:/usr/include/c++/8/bits/basic_string.h **** #if __cplusplus > 201402L
1204:/usr/include/c++/8/bits/basic_string.h ****       /**
1205:/usr/include/c++/8/bits/basic_string.h ****        *  @brief  Append a string_view.
1206:/usr/include/c++/8/bits/basic_string.h ****        *  @param __svt  An object convertible to string_view to be appended.
1207:/usr/include/c++/8/bits/basic_string.h ****        *  @return  Reference to this string.
1208:/usr/include/c++/8/bits/basic_string.h ****        */
1209:/usr/include/c++/8/bits/basic_string.h ****       template<typename _Tp>
1210:/usr/include/c++/8/bits/basic_string.h **** 	_If_sv<_Tp, basic_string&>
1211:/usr/include/c++/8/bits/basic_string.h **** 	operator+=(const _Tp& __svt)
1212:/usr/include/c++/8/bits/basic_string.h **** 	{ return this->append(__svt); }
1213:/usr/include/c++/8/bits/basic_string.h **** #endif // C++17
1214:/usr/include/c++/8/bits/basic_string.h **** 
1215:/usr/include/c++/8/bits/basic_string.h ****       /**
1216:/usr/include/c++/8/bits/basic_string.h ****        *  @brief  Append a string to this string.
1217:/usr/include/c++/8/bits/basic_string.h ****        *  @param __str  The string to append.
1218:/usr/include/c++/8/bits/basic_string.h ****        *  @return  Reference to this string.
1219:/usr/include/c++/8/bits/basic_string.h ****        */
1220:/usr/include/c++/8/bits/basic_string.h ****       basic_string&
1221:/usr/include/c++/8/bits/basic_string.h ****       append(const basic_string& __str)
1222:/usr/include/c++/8/bits/basic_string.h ****       { return _M_append(__str._M_data(), __str.size()); }
1223:/usr/include/c++/8/bits/basic_string.h **** 
1224:/usr/include/c++/8/bits/basic_string.h ****       /**
1225:/usr/include/c++/8/bits/basic_string.h ****        *  @brief  Append a substring.
1226:/usr/include/c++/8/bits/basic_string.h ****        *  @param __str  The string to append.
1227:/usr/include/c++/8/bits/basic_string.h ****        *  @param __pos  Index of the first character of str to append.
1228:/usr/include/c++/8/bits/basic_string.h ****        *  @param __n  The number of characters to append.
1229:/usr/include/c++/8/bits/basic_string.h ****        *  @return  Reference to this string.
1230:/usr/include/c++/8/bits/basic_string.h ****        *  @throw  std::out_of_range if @a __pos is not a valid index.
1231:/usr/include/c++/8/bits/basic_string.h ****        *
1232:/usr/include/c++/8/bits/basic_string.h ****        *  This function appends @a __n characters from @a __str
1233:/usr/include/c++/8/bits/basic_string.h ****        *  starting at @a __pos to this string.  If @a __n is is larger
1234:/usr/include/c++/8/bits/basic_string.h ****        *  than the number of available characters in @a __str, the
1235:/usr/include/c++/8/bits/basic_string.h ****        *  remainder of @a __str is appended.
1236:/usr/include/c++/8/bits/basic_string.h ****        */
1237:/usr/include/c++/8/bits/basic_string.h ****       basic_string&
1238:/usr/include/c++/8/bits/basic_string.h ****       append(const basic_string& __str, size_type __pos, size_type __n = npos)
1239:/usr/include/c++/8/bits/basic_string.h ****       { return _M_append(__str._M_data()
1240:/usr/include/c++/8/bits/basic_string.h **** 			 + __str._M_check(__pos, "basic_string::append"),
1241:/usr/include/c++/8/bits/basic_string.h **** 			 __str._M_limit(__pos, __n)); }
1242:/usr/include/c++/8/bits/basic_string.h **** 
1243:/usr/include/c++/8/bits/basic_string.h ****       /**
1244:/usr/include/c++/8/bits/basic_string.h ****        *  @brief  Append a C substring.
1245:/usr/include/c++/8/bits/basic_string.h ****        *  @param __s  The C string to append.
1246:/usr/include/c++/8/bits/basic_string.h ****        *  @param __n  The number of characters to append.
1247:/usr/include/c++/8/bits/basic_string.h ****        *  @return  Reference to this string.
1248:/usr/include/c++/8/bits/basic_string.h ****        */
1249:/usr/include/c++/8/bits/basic_string.h ****       basic_string&
1250:/usr/include/c++/8/bits/basic_string.h ****       append(const _CharT* __s, size_type __n)
1251:/usr/include/c++/8/bits/basic_string.h ****       {
1252:/usr/include/c++/8/bits/basic_string.h **** 	__glibcxx_requires_string_len(__s, __n);
1253:/usr/include/c++/8/bits/basic_string.h **** 	_M_check_length(size_type(0), __n, "basic_string::append");
1254:/usr/include/c++/8/bits/basic_string.h **** 	return _M_append(__s, __n);
1255:/usr/include/c++/8/bits/basic_string.h ****       }
1256:/usr/include/c++/8/bits/basic_string.h **** 
1257:/usr/include/c++/8/bits/basic_string.h ****       /**
1258:/usr/include/c++/8/bits/basic_string.h ****        *  @brief  Append a C string.
1259:/usr/include/c++/8/bits/basic_string.h ****        *  @param __s  The C string to append.
